   1                             		.file	"inthandler.c"
   2                             		.section P,"ax"
   3                             	.Ltext0:
   4                             		.section	.text.INT_Excep_SuperVisorInst,"ax",@progbits
   5                             		.global	_INT_Excep_SuperVisorInst
   7                             	_INT_Excep_SuperVisorInst:
   8                             	.LFB0:
   9                             		.file 1 "../generate/inthandler.c"
   1:../generate/inthandler.c **** /************************************************************************/
   2:../generate/inthandler.c **** /*    File Version: V1.01                                               */
   3:../generate/inthandler.c **** /*    Date Generated: 14/02/2014                                        */
   4:../generate/inthandler.c **** /************************************************************************/
   5:../generate/inthandler.c **** #include "interrupt_handlers.h"
   6:../generate/inthandler.c **** 
   7:../generate/inthandler.c **** // Exception(Supervisor Instruction)
   8:../generate/inthandler.c **** void INT_Excep_SuperVisorInst(void){/* brk(); */}
  10                             		.loc 1 8 36
  11                             		; Note: Interrupt Handler
  12 0000 7E AA                   		push.l	r10
  13                             	.LCFI0:
  14 0002 EF 0A                   		mov.L	r0, r10
  15                             	.LCFI1:
  16                             		.loc 1 8 1
  17 0004 03                      		nop
  18 0005 7E BA                   		pop	r10
  19 0007 7F 95                   		rte
  20                             	.LFE0:
  22                             		.section	.text.INT_Excep_AccessInst,"ax",@progbits
  23                             		.global	_INT_Excep_AccessInst
  25                             	_INT_Excep_AccessInst:
  26                             	.LFB1:
   9:../generate/inthandler.c **** 
  10:../generate/inthandler.c **** // Exception(Access Instruction)
  11:../generate/inthandler.c **** void INT_Excep_AccessInst(void){/* brk(); */}
  27                             		.loc 1 11 32
  28                             		; Note: Interrupt Handler
  29 0000 7E AA                   		push.l	r10
  30                             	.LCFI2:
  31 0002 EF 0A                   		mov.L	r0, r10
  32                             	.LCFI3:
  33                             		.loc 1 11 1
  34 0004 03                      		nop
  35 0005 7E BA                   		pop	r10
  36 0007 7F 95                   		rte
  37                             	.LFE1:
  39                             		.section	.text.INT_Excep_UndefinedInst,"ax",@progbits
  40                             		.global	_INT_Excep_UndefinedInst
  42                             	_INT_Excep_UndefinedInst:
  43                             	.LFB2:
  12:../generate/inthandler.c **** 
  13:../generate/inthandler.c **** // Exception(Undefined Instruction)
  14:../generate/inthandler.c **** void INT_Excep_UndefinedInst(void){/* brk(); */}
  44                             		.loc 1 14 35
  45                             		; Note: Interrupt Handler
  46 0000 7E AA                   		push.l	r10
  47                             	.LCFI4:
  48 0002 EF 0A                   		mov.L	r0, r10
  49                             	.LCFI5:
  50                             		.loc 1 14 1
  51 0004 03                      		nop
  52 0005 7E BA                   		pop	r10
  53 0007 7F 95                   		rte
  54                             	.LFE2:
  56                             		.section	.text.INT_Excep_FloatingPoint,"ax",@progbits
  57                             		.global	_INT_Excep_FloatingPoint
  59                             	_INT_Excep_FloatingPoint:
  60                             	.LFB3:
  15:../generate/inthandler.c **** 
  16:../generate/inthandler.c **** // Exception(Floating Point)
  17:../generate/inthandler.c **** void INT_Excep_FloatingPoint(void){/* brk(); */}
  61                             		.loc 1 17 35
  62                             		; Note: Interrupt Handler
  63 0000 7E AA                   		push.l	r10
  64                             	.LCFI6:
  65 0002 EF 0A                   		mov.L	r0, r10
  66                             	.LCFI7:
  67                             		.loc 1 17 1
  68 0004 03                      		nop
  69 0005 7E BA                   		pop	r10
  70 0007 7F 95                   		rte
  71                             	.LFE3:
  73                             		.section	.text.INT_NonMaskableInterrupt,"ax",@progbits
  74                             		.global	_INT_NonMaskableInterrupt
  76                             	_INT_NonMaskableInterrupt:
  77                             	.LFB4:
  18:../generate/inthandler.c **** 
  19:../generate/inthandler.c **** // NMI
  20:../generate/inthandler.c **** void INT_NonMaskableInterrupt(void){/* brk(); */}
  78                             		.loc 1 20 36
  79                             		; Note: Interrupt Handler
  80 0000 7E AA                   		push.l	r10
  81                             	.LCFI8:
  82 0002 EF 0A                   		mov.L	r0, r10
  83                             	.LCFI9:
  84                             		.loc 1 20 1
  85 0004 03                      		nop
  86 0005 7E BA                   		pop	r10
  87 0007 7F 95                   		rte
  88                             	.LFE4:
  90                             		.section	.text.Dummy,"ax",@progbits
  91                             		.global	_Dummy
  93                             	_Dummy:
  94                             	.LFB5:
  21:../generate/inthandler.c **** 
  22:../generate/inthandler.c **** // Dummy
  23:../generate/inthandler.c **** void Dummy(void){/* brk(); */}
  95                             		.loc 1 23 17
  96                             		; Note: Interrupt Handler
  97 0000 7E AA                   		push.l	r10
  98                             	.LCFI10:
  99 0002 EF 0A                   		mov.L	r0, r10
 100                             	.LCFI11:
 101                             		.loc 1 23 1
 102 0004 03                      		nop
 103 0005 7E BA                   		pop	r10
 104 0007 7F 95                   		rte
 105                             	.LFE5:
 107                             		.section	.text.INT_Excep_BRK,"ax",@progbits
 108                             		.global	_INT_Excep_BRK
 110                             	_INT_Excep_BRK:
 111                             	.LFB6:
  24:../generate/inthandler.c **** 
  25:../generate/inthandler.c **** // BRK
  26:../generate/inthandler.c **** void INT_Excep_BRK(void){ /*wait();*/ }
 112                             		.loc 1 26 25
 113                             		; Note: Interrupt Handler
 114 0000 7E AA                   		push.l	r10
 115                             	.LCFI12:
 116 0002 EF 0A                   		mov.L	r0, r10
 117                             	.LCFI13:
 118                             		.loc 1 26 1
 119 0004 03                      		nop
 120 0005 7E BA                   		pop	r10
 121 0007 7F 95                   		rte
 122                             	.LFE6:
 124                             		.section	.text.INT_Excep_BSC_BUSERR,"ax",@progbits
 125                             		.global	_INT_Excep_BSC_BUSERR
 127                             	_INT_Excep_BSC_BUSERR:
 128                             	.LFB7:
  27:../generate/inthandler.c **** //;0x0000  Reserved
  28:../generate/inthandler.c ****     
  29:../generate/inthandler.c **** //;0x0004  Reserved
  30:../generate/inthandler.c ****     
  31:../generate/inthandler.c **** //;0x0008  Reserved
  32:../generate/inthandler.c ****     
  33:../generate/inthandler.c **** //;0x000C  Reserved
  34:../generate/inthandler.c ****     
  35:../generate/inthandler.c **** //;0x0010  Reserved
  36:../generate/inthandler.c ****     
  37:../generate/inthandler.c **** //;0x0014  Reserved
  38:../generate/inthandler.c ****     
  39:../generate/inthandler.c **** //;0x0018  Reserved
  40:../generate/inthandler.c ****     
  41:../generate/inthandler.c **** //;0x001C  Reserved
  42:../generate/inthandler.c ****     
  43:../generate/inthandler.c **** //;0x0020  Reserved
  44:../generate/inthandler.c ****     
  45:../generate/inthandler.c **** //;0x0024  Reserved
  46:../generate/inthandler.c ****     
  47:../generate/inthandler.c **** //;0x0028  Reserved
  48:../generate/inthandler.c ****     
  49:../generate/inthandler.c **** //;0x002C  Reserved
  50:../generate/inthandler.c ****     
  51:../generate/inthandler.c **** //;0x0030  Reserved
  52:../generate/inthandler.c ****     
  53:../generate/inthandler.c **** //;0x0034  Reserved
  54:../generate/inthandler.c ****     
  55:../generate/inthandler.c **** //;0x0038  Reserved
  56:../generate/inthandler.c ****     
  57:../generate/inthandler.c **** //;0x003C  Reserved
  58:../generate/inthandler.c **** 
  59:../generate/inthandler.c **** //;0x0040  BUSERR
  60:../generate/inthandler.c **** void  INT_Excep_BSC_BUSERR(void){ }
 129                             		.loc 1 60 33
 130                             		; Note: Interrupt Handler
 131 0000 7E AA                   		push.l	r10
 132                             	.LCFI14:
 133 0002 EF 0A                   		mov.L	r0, r10
 134                             	.LCFI15:
 135                             		.loc 1 60 1
 136 0004 03                      		nop
 137 0005 7E BA                   		pop	r10
 138 0007 7F 95                   		rte
 139                             	.LFE7:
 141                             		.section	.text.INT_Excep_RAM_RAMERR,"ax",@progbits
 142                             		.global	_INT_Excep_RAM_RAMERR
 144                             	_INT_Excep_RAM_RAMERR:
 145                             	.LFB8:
  61:../generate/inthandler.c **** //;0x0044  Reserved
  62:../generate/inthandler.c **** 
  63:../generate/inthandler.c **** //;0x0048  RAMERR
  64:../generate/inthandler.c **** void INT_Excep_RAM_RAMERR(void){ }
 146                             		.loc 1 64 32
 147                             		; Note: Interrupt Handler
 148 0000 7E AA                   		push.l	r10
 149                             	.LCFI16:
 150 0002 EF 0A                   		mov.L	r0, r10
 151                             	.LCFI17:
 152                             		.loc 1 64 1
 153 0004 03                      		nop
 154 0005 7E BA                   		pop	r10
 155 0007 7F 95                   		rte
 156                             	.LFE8:
 158                             		.section	.text.INT_Excep_FCU_FIFERR,"ax",@progbits
 159                             		.global	_INT_Excep_FCU_FIFERR
 161                             	_INT_Excep_FCU_FIFERR:
 162                             	.LFB9:
  65:../generate/inthandler.c **** //;0x004C  Reserved
  66:../generate/inthandler.c **** 
  67:../generate/inthandler.c **** //;0x0050  Reserved
  68:../generate/inthandler.c **** 
  69:../generate/inthandler.c **** //;0x0054 FIFERR
  70:../generate/inthandler.c **** void INT_Excep_FCU_FIFERR(void){ }
 163                             		.loc 1 70 32
 164                             		; Note: Interrupt Handler
 165 0000 7E AA                   		push.l	r10
 166                             	.LCFI18:
 167 0002 EF 0A                   		mov.L	r0, r10
 168                             	.LCFI19:
 169                             		.loc 1 70 1
 170 0004 03                      		nop
 171 0005 7E BA                   		pop	r10
 172 0007 7F 95                   		rte
 173                             	.LFE9:
 175                             		.section	.text.INT_Excep_FCU_FRDYI,"ax",@progbits
 176                             		.global	_INT_Excep_FCU_FRDYI
 178                             	_INT_Excep_FCU_FRDYI:
 179                             	.LFB10:
  71:../generate/inthandler.c **** //;0x0058  Reserved
  72:../generate/inthandler.c **** 
  73:../generate/inthandler.c **** //;0x005C  FRDYI
  74:../generate/inthandler.c **** void INT_Excep_FCU_FRDYI(void){ }
 180                             		.loc 1 74 31
 181                             		; Note: Interrupt Handler
 182 0000 7E AA                   		push.l	r10
 183                             	.LCFI20:
 184 0002 EF 0A                   		mov.L	r0, r10
 185                             	.LCFI21:
 186                             		.loc 1 74 1
 187 0004 03                      		nop
 188 0005 7E BA                   		pop	r10
 189 0007 7F 95                   		rte
 190                             	.LFE10:
 192                             		.section	.text.INT_Excep_ICU_SWINT2,"ax",@progbits
 193                             		.global	_INT_Excep_ICU_SWINT2
 195                             	_INT_Excep_ICU_SWINT2:
 196                             	.LFB11:
  75:../generate/inthandler.c **** //;0x0060  Reserved
  76:../generate/inthandler.c **** 
  77:../generate/inthandler.c **** //;0x0064  Reserved
  78:../generate/inthandler.c **** 
  79:../generate/inthandler.c **** //;0x0068  SWINT2
  80:../generate/inthandler.c **** void INT_Excep_ICU_SWINT2(void){ }
 197                             		.loc 1 80 32
 198                             		; Note: Interrupt Handler
 199 0000 7E AA                   		push.l	r10
 200                             	.LCFI22:
 201 0002 EF 0A                   		mov.L	r0, r10
 202                             	.LCFI23:
 203                             		.loc 1 80 1
 204 0004 03                      		nop
 205 0005 7E BA                   		pop	r10
 206 0007 7F 95                   		rte
 207                             	.LFE11:
 209                             		.section	.text.INT_Excep_ICU_SWINT,"ax",@progbits
 210                             		.global	_INT_Excep_ICU_SWINT
 212                             	_INT_Excep_ICU_SWINT:
 213                             	.LFB12:
  81:../generate/inthandler.c **** 
  82:../generate/inthandler.c **** //;0x006C  SWINT
  83:../generate/inthandler.c **** void INT_Excep_ICU_SWINT(void){ }
 214                             		.loc 1 83 31
 215                             		; Note: Interrupt Handler
 216 0000 7E AA                   		push.l	r10
 217                             	.LCFI24:
 218 0002 EF 0A                   		mov.L	r0, r10
 219                             	.LCFI25:
 220                             		.loc 1 83 1
 221 0004 03                      		nop
 222 0005 7E BA                   		pop	r10
 223 0007 7F 95                   		rte
 224                             	.LFE12:
 226                             		.section	.text.INT_Excep_CMT0_CMI0,"ax",@progbits
 227                             		.global	_INT_Excep_CMT0_CMI0
 229                             	_INT_Excep_CMT0_CMI0:
 230                             	.LFB13:
  84:../generate/inthandler.c **** 
  85:../generate/inthandler.c **** //;0x0070  CMI0
  86:../generate/inthandler.c **** void INT_Excep_CMT0_CMI0(void){ }
 231                             		.loc 1 86 31
 232                             		; Note: Interrupt Handler
 233 0000 7E AA                   		push.l	r10
 234                             	.LCFI26:
 235 0002 EF 0A                   		mov.L	r0, r10
 236                             	.LCFI27:
 237                             		.loc 1 86 1
 238 0004 03                      		nop
 239 0005 7E BA                   		pop	r10
 240 0007 7F 95                   		rte
 241                             	.LFE13:
 243                             		.section	.text.INT_Excep_CMT1_CMI1,"ax",@progbits
 244                             		.global	_INT_Excep_CMT1_CMI1
 246                             	_INT_Excep_CMT1_CMI1:
 247                             	.LFB14:
  87:../generate/inthandler.c **** 
  88:../generate/inthandler.c **** //;0x0074  CMI1
  89:../generate/inthandler.c **** void INT_Excep_CMT1_CMI1(void){ }
 248                             		.loc 1 89 31
 249                             		; Note: Interrupt Handler
 250 0000 7E AA                   		push.l	r10
 251                             	.LCFI28:
 252 0002 EF 0A                   		mov.L	r0, r10
 253                             	.LCFI29:
 254                             		.loc 1 89 1
 255 0004 03                      		nop
 256 0005 7E BA                   		pop	r10
 257 0007 7F 95                   		rte
 258                             	.LFE14:
 260                             		.section	.text.INT_Excep_CMTW0_CMWI0,"ax",@progbits
 261                             		.global	_INT_Excep_CMTW0_CMWI0
 263                             	_INT_Excep_CMTW0_CMWI0:
 264                             	.LFB15:
  90:../generate/inthandler.c **** 
  91:../generate/inthandler.c **** //;0x0078  CMWI0
  92:../generate/inthandler.c **** void INT_Excep_CMTW0_CMWI0(void){ }
 265                             		.loc 1 92 33
 266                             		; Note: Interrupt Handler
 267 0000 7E AA                   		push.l	r10
 268                             	.LCFI30:
 269 0002 EF 0A                   		mov.L	r0, r10
 270                             	.LCFI31:
 271                             		.loc 1 92 1
 272 0004 03                      		nop
 273 0005 7E BA                   		pop	r10
 274 0007 7F 95                   		rte
 275                             	.LFE15:
 277                             		.section	.text.INT_Excep_CMTW1_CMWI1,"ax",@progbits
 278                             		.global	_INT_Excep_CMTW1_CMWI1
 280                             	_INT_Excep_CMTW1_CMWI1:
 281                             	.LFB16:
  93:../generate/inthandler.c **** 
  94:../generate/inthandler.c **** //;0x007C  CMWI1
  95:../generate/inthandler.c **** void INT_Excep_CMTW1_CMWI1(void){ }
 282                             		.loc 1 95 33
 283                             		; Note: Interrupt Handler
 284 0000 7E AA                   		push.l	r10
 285                             	.LCFI32:
 286 0002 EF 0A                   		mov.L	r0, r10
 287                             	.LCFI33:
 288                             		.loc 1 95 1
 289 0004 03                      		nop
 290 0005 7E BA                   		pop	r10
 291 0007 7F 95                   		rte
 292                             	.LFE16:
 294                             		.section	.text.INT_Excep_USBA_D0FIFO2,"ax",@progbits
 295                             		.global	_INT_Excep_USBA_D0FIFO2
 297                             	_INT_Excep_USBA_D0FIFO2:
 298                             	.LFB17:
  96:../generate/inthandler.c **** 
  97:../generate/inthandler.c **** //;0x0080  D0FIFO2
  98:../generate/inthandler.c **** void INT_Excep_USBA_D0FIFO2(void){ }
 299                             		.loc 1 98 34
 300                             		; Note: Interrupt Handler
 301 0000 7E AA                   		push.l	r10
 302                             	.LCFI34:
 303 0002 EF 0A                   		mov.L	r0, r10
 304                             	.LCFI35:
 305                             		.loc 1 98 1
 306 0004 03                      		nop
 307 0005 7E BA                   		pop	r10
 308 0007 7F 95                   		rte
 309                             	.LFE17:
 311                             		.section	.text.INT_Excep_USBA_D1FIFO2,"ax",@progbits
 312                             		.global	_INT_Excep_USBA_D1FIFO2
 314                             	_INT_Excep_USBA_D1FIFO2:
 315                             	.LFB18:
  99:../generate/inthandler.c **** 
 100:../generate/inthandler.c **** //;0x0084  D1FIFO2
 101:../generate/inthandler.c **** void INT_Excep_USBA_D1FIFO2(void){ }
 316                             		.loc 1 101 34
 317                             		; Note: Interrupt Handler
 318 0000 7E AA                   		push.l	r10
 319                             	.LCFI36:
 320 0002 EF 0A                   		mov.L	r0, r10
 321                             	.LCFI37:
 322                             		.loc 1 101 1
 323 0004 03                      		nop
 324 0005 7E BA                   		pop	r10
 325 0007 7F 95                   		rte
 326                             	.LFE18:
 328                             		.section	.text.INT_Excep_USB0_D0FIFO0,"ax",@progbits
 329                             		.global	_INT_Excep_USB0_D0FIFO0
 331                             	_INT_Excep_USB0_D0FIFO0:
 332                             	.LFB19:
 102:../generate/inthandler.c **** 
 103:../generate/inthandler.c **** //;0x0088  D0FIFO0
 104:../generate/inthandler.c **** void INT_Excep_USB0_D0FIFO0(void){ }
 333                             		.loc 1 104 34
 334                             		; Note: Interrupt Handler
 335 0000 7E AA                   		push.l	r10
 336                             	.LCFI38:
 337 0002 EF 0A                   		mov.L	r0, r10
 338                             	.LCFI39:
 339                             		.loc 1 104 1
 340 0004 03                      		nop
 341 0005 7E BA                   		pop	r10
 342 0007 7F 95                   		rte
 343                             	.LFE19:
 345                             		.section	.text.INT_Excep_USB0_D1FIFO0,"ax",@progbits
 346                             		.global	_INT_Excep_USB0_D1FIFO0
 348                             	_INT_Excep_USB0_D1FIFO0:
 349                             	.LFB20:
 105:../generate/inthandler.c **** 
 106:../generate/inthandler.c **** //;0x008C  D1FIFO0
 107:../generate/inthandler.c **** void INT_Excep_USB0_D1FIFO0(void){ }
 350                             		.loc 1 107 34
 351                             		; Note: Interrupt Handler
 352 0000 7E AA                   		push.l	r10
 353                             	.LCFI40:
 354 0002 EF 0A                   		mov.L	r0, r10
 355                             	.LCFI41:
 356                             		.loc 1 107 1
 357 0004 03                      		nop
 358 0005 7E BA                   		pop	r10
 359 0007 7F 95                   		rte
 360                             	.LFE20:
 362                             		.section	.text.INT_Excep_RSPI0_SPRI0,"ax",@progbits
 363                             		.global	_INT_Excep_RSPI0_SPRI0
 365                             	_INT_Excep_RSPI0_SPRI0:
 366                             	.LFB21:
 108:../generate/inthandler.c **** //;0x0090  Reserved
 109:../generate/inthandler.c **** 
 110:../generate/inthandler.c **** //;0x0094  Reserved
 111:../generate/inthandler.c **** 
 112:../generate/inthandler.c **** //;0x0098  SPRI0
 113:../generate/inthandler.c **** void INT_Excep_RSPI0_SPRI0(void){ }
 367                             		.loc 1 113 33
 368                             		; Note: Interrupt Handler
 369 0000 7E AA                   		push.l	r10
 370                             	.LCFI42:
 371 0002 EF 0A                   		mov.L	r0, r10
 372                             	.LCFI43:
 373                             		.loc 1 113 1
 374 0004 03                      		nop
 375 0005 7E BA                   		pop	r10
 376 0007 7F 95                   		rte
 377                             	.LFE21:
 379                             		.section	.text.INT_Excep_RSPI0_SPTI0,"ax",@progbits
 380                             		.global	_INT_Excep_RSPI0_SPTI0
 382                             	_INT_Excep_RSPI0_SPTI0:
 383                             	.LFB22:
 114:../generate/inthandler.c **** 
 115:../generate/inthandler.c **** //;0x009C  SPTI0
 116:../generate/inthandler.c **** void INT_Excep_RSPI0_SPTI0(void){ }
 384                             		.loc 1 116 33
 385                             		; Note: Interrupt Handler
 386 0000 7E AA                   		push.l	r10
 387                             	.LCFI44:
 388 0002 EF 0A                   		mov.L	r0, r10
 389                             	.LCFI45:
 390                             		.loc 1 116 1
 391 0004 03                      		nop
 392 0005 7E BA                   		pop	r10
 393 0007 7F 95                   		rte
 394                             	.LFE22:
 396                             		.section	.text.INT_Excep_QSPI_SPRI,"ax",@progbits
 397                             		.global	_INT_Excep_QSPI_SPRI
 399                             	_INT_Excep_QSPI_SPRI:
 400                             	.LFB23:
 117:../generate/inthandler.c **** //;0x00A0  Reserved
 118:../generate/inthandler.c **** 
 119:../generate/inthandler.c **** //;0x00A4  Reserved
 120:../generate/inthandler.c **** 
 121:../generate/inthandler.c **** //;0x00A8  SPRI
 122:../generate/inthandler.c **** void INT_Excep_QSPI_SPRI(void){ }
 401                             		.loc 1 122 31
 402                             		; Note: Interrupt Handler
 403 0000 7E AA                   		push.l	r10
 404                             	.LCFI46:
 405 0002 EF 0A                   		mov.L	r0, r10
 406                             	.LCFI47:
 407                             		.loc 1 122 1
 408 0004 03                      		nop
 409 0005 7E BA                   		pop	r10
 410 0007 7F 95                   		rte
 411                             	.LFE23:
 413                             		.section	.text.INT_Excep_QSPI_SPTI,"ax",@progbits
 414                             		.global	_INT_Excep_QSPI_SPTI
 416                             	_INT_Excep_QSPI_SPTI:
 417                             	.LFB24:
 123:../generate/inthandler.c **** 
 124:../generate/inthandler.c **** //;0x00AC  SPTI
 125:../generate/inthandler.c **** void INT_Excep_QSPI_SPTI(void){ }
 418                             		.loc 1 125 31
 419                             		; Note: Interrupt Handler
 420 0000 7E AA                   		push.l	r10
 421                             	.LCFI48:
 422 0002 EF 0A                   		mov.L	r0, r10
 423                             	.LCFI49:
 424                             		.loc 1 125 1
 425 0004 03                      		nop
 426 0005 7E BA                   		pop	r10
 427 0007 7F 95                   		rte
 428                             	.LFE24:
 430                             		.section	.text.INT_Excep_SDHI_SBFAI,"ax",@progbits
 431                             		.global	_INT_Excep_SDHI_SBFAI
 433                             	_INT_Excep_SDHI_SBFAI:
 434                             	.LFB25:
 126:../generate/inthandler.c **** 
 127:../generate/inthandler.c **** //;0x00B0  SBFAI
 128:../generate/inthandler.c **** void INT_Excep_SDHI_SBFAI(void){ }
 435                             		.loc 1 128 32
 436                             		; Note: Interrupt Handler
 437 0000 7E AA                   		push.l	r10
 438                             	.LCFI50:
 439 0002 EF 0A                   		mov.L	r0, r10
 440                             	.LCFI51:
 441                             		.loc 1 128 1
 442 0004 03                      		nop
 443 0005 7E BA                   		pop	r10
 444 0007 7F 95                   		rte
 445                             	.LFE25:
 447                             		.section	.text.INT_Excep_MMCIF_MBFAI,"ax",@progbits
 448                             		.global	_INT_Excep_MMCIF_MBFAI
 450                             	_INT_Excep_MMCIF_MBFAI:
 451                             	.LFB26:
 129:../generate/inthandler.c **** 
 130:../generate/inthandler.c **** //;0x00B4  MBFAI
 131:../generate/inthandler.c **** void INT_Excep_MMCIF_MBFAI(void){ }
 452                             		.loc 1 131 33
 453                             		; Note: Interrupt Handler
 454 0000 7E AA                   		push.l	r10
 455                             	.LCFI52:
 456 0002 EF 0A                   		mov.L	r0, r10
 457                             	.LCFI53:
 458                             		.loc 1 131 1
 459 0004 03                      		nop
 460 0005 7E BA                   		pop	r10
 461 0007 7F 95                   		rte
 462                             	.LFE26:
 464                             		.section	.text.INT_Excep_SSI0_SSITXI0,"ax",@progbits
 465                             		.global	_INT_Excep_SSI0_SSITXI0
 467                             	_INT_Excep_SSI0_SSITXI0:
 468                             	.LFB27:
 132:../generate/inthandler.c **** 
 133:../generate/inthandler.c **** //;0x00B8  SSITX0
 134:../generate/inthandler.c **** void INT_Excep_SSI0_SSITXI0(void){ }
 469                             		.loc 1 134 34
 470                             		; Note: Interrupt Handler
 471 0000 7E AA                   		push.l	r10
 472                             	.LCFI54:
 473 0002 EF 0A                   		mov.L	r0, r10
 474                             	.LCFI55:
 475                             		.loc 1 134 1
 476 0004 03                      		nop
 477 0005 7E BA                   		pop	r10
 478 0007 7F 95                   		rte
 479                             	.LFE27:
 481                             		.section	.text.INT_Excep_SSI0_SSIRXI0,"ax",@progbits
 482                             		.global	_INT_Excep_SSI0_SSIRXI0
 484                             	_INT_Excep_SSI0_SSIRXI0:
 485                             	.LFB28:
 135:../generate/inthandler.c **** 
 136:../generate/inthandler.c **** //;0x00BC  SSIRX0
 137:../generate/inthandler.c **** void INT_Excep_SSI0_SSIRXI0(void){ }
 486                             		.loc 1 137 34
 487                             		; Note: Interrupt Handler
 488 0000 7E AA                   		push.l	r10
 489                             	.LCFI56:
 490 0002 EF 0A                   		mov.L	r0, r10
 491                             	.LCFI57:
 492                             		.loc 1 137 1
 493 0004 03                      		nop
 494 0005 7E BA                   		pop	r10
 495 0007 7F 95                   		rte
 496                             	.LFE28:
 498                             		.section	.text.INT_Excep_SSI1_SSIRTI1,"ax",@progbits
 499                             		.global	_INT_Excep_SSI1_SSIRTI1
 501                             	_INT_Excep_SSI1_SSIRTI1:
 502                             	.LFB29:
 138:../generate/inthandler.c **** 
 139:../generate/inthandler.c **** //;0x00C0  SSIRTI1
 140:../generate/inthandler.c **** void INT_Excep_SSI1_SSIRTI1(void){ }
 503                             		.loc 1 140 34
 504                             		; Note: Interrupt Handler
 505 0000 7E AA                   		push.l	r10
 506                             	.LCFI58:
 507 0002 EF 0A                   		mov.L	r0, r10
 508                             	.LCFI59:
 509                             		.loc 1 140 1
 510 0004 03                      		nop
 511 0005 7E BA                   		pop	r10
 512 0007 7F 95                   		rte
 513                             	.LFE29:
 515                             		.section	.text.INT_Excep_SRC_IDEI,"ax",@progbits
 516                             		.global	_INT_Excep_SRC_IDEI
 518                             	_INT_Excep_SRC_IDEI:
 519                             	.LFB30:
 141:../generate/inthandler.c **** //;0x00C4  Reserved
 142:../generate/inthandler.c **** 
 143:../generate/inthandler.c **** //;0x00C8  IDEI
 144:../generate/inthandler.c **** void INT_Excep_SRC_IDEI(void){ }
 520                             		.loc 1 144 30
 521                             		; Note: Interrupt Handler
 522 0000 7E AA                   		push.l	r10
 523                             	.LCFI60:
 524 0002 EF 0A                   		mov.L	r0, r10
 525                             	.LCFI61:
 526                             		.loc 1 144 1
 527 0004 03                      		nop
 528 0005 7E BA                   		pop	r10
 529 0007 7F 95                   		rte
 530                             	.LFE30:
 532                             		.section	.text.INT_Excep_SRC_ODFI,"ax",@progbits
 533                             		.global	_INT_Excep_SRC_ODFI
 535                             	_INT_Excep_SRC_ODFI:
 536                             	.LFB31:
 145:../generate/inthandler.c **** 
 146:../generate/inthandler.c **** //;0x00CC  ODFI
 147:../generate/inthandler.c **** void INT_Excep_SRC_ODFI(void){ }
 537                             		.loc 1 147 30
 538                             		; Note: Interrupt Handler
 539 0000 7E AA                   		push.l	r10
 540                             	.LCFI62:
 541 0002 EF 0A                   		mov.L	r0, r10
 542                             	.LCFI63:
 543                             		.loc 1 147 1
 544 0004 03                      		nop
 545 0005 7E BA                   		pop	r10
 546 0007 7F 95                   		rte
 547                             	.LFE31:
 549                             		.section	.text.INT_Excep_RIIC0_RXI0,"ax",@progbits
 550                             		.global	_INT_Excep_RIIC0_RXI0
 552                             	_INT_Excep_RIIC0_RXI0:
 553                             	.LFB32:
 148:../generate/inthandler.c **** 
 149:../generate/inthandler.c **** //;0x00D0  RXI0
 150:../generate/inthandler.c **** void INT_Excep_RIIC0_RXI0(void){ }
 554                             		.loc 1 150 32
 555                             		; Note: Interrupt Handler
 556 0000 7E AA                   		push.l	r10
 557                             	.LCFI64:
 558 0002 EF 0A                   		mov.L	r0, r10
 559                             	.LCFI65:
 560                             		.loc 1 150 1
 561 0004 03                      		nop
 562 0005 7E BA                   		pop	r10
 563 0007 7F 95                   		rte
 564                             	.LFE32:
 566                             		.section	.text.INT_Excep_RIIC0_TXI0,"ax",@progbits
 567                             		.global	_INT_Excep_RIIC0_TXI0
 569                             	_INT_Excep_RIIC0_TXI0:
 570                             	.LFB33:
 151:../generate/inthandler.c **** 
 152:../generate/inthandler.c **** //;0x00D4C  TXI0
 153:../generate/inthandler.c **** void INT_Excep_RIIC0_TXI0(void){ }
 571                             		.loc 1 153 32
 572                             		; Note: Interrupt Handler
 573 0000 7E AA                   		push.l	r10
 574                             	.LCFI66:
 575 0002 EF 0A                   		mov.L	r0, r10
 576                             	.LCFI67:
 577                             		.loc 1 153 1
 578 0004 03                      		nop
 579 0005 7E BA                   		pop	r10
 580 0007 7F 95                   		rte
 581                             	.LFE33:
 583                             		.section	.text.INT_Excep_RIIC2_RXI2,"ax",@progbits
 584                             		.global	_INT_Excep_RIIC2_RXI2
 586                             	_INT_Excep_RIIC2_RXI2:
 587                             	.LFB34:
 154:../generate/inthandler.c **** 
 155:../generate/inthandler.c **** //;0x00D8  RXI2
 156:../generate/inthandler.c **** void INT_Excep_RIIC2_RXI2(void){ }
 588                             		.loc 1 156 32
 589                             		; Note: Interrupt Handler
 590 0000 7E AA                   		push.l	r10
 591                             	.LCFI68:
 592 0002 EF 0A                   		mov.L	r0, r10
 593                             	.LCFI69:
 594                             		.loc 1 156 1
 595 0004 03                      		nop
 596 0005 7E BA                   		pop	r10
 597 0007 7F 95                   		rte
 598                             	.LFE34:
 600                             		.section	.text.INT_Excep_RIIC2_TXI2,"ax",@progbits
 601                             		.global	_INT_Excep_RIIC2_TXI2
 603                             	_INT_Excep_RIIC2_TXI2:
 604                             	.LFB35:
 157:../generate/inthandler.c **** 
 158:../generate/inthandler.c **** //;0x00DC TXI2
 159:../generate/inthandler.c **** void INT_Excep_RIIC2_TXI2(void){ }
 605                             		.loc 1 159 32
 606                             		; Note: Interrupt Handler
 607 0000 7E AA                   		push.l	r10
 608                             	.LCFI70:
 609 0002 EF 0A                   		mov.L	r0, r10
 610                             	.LCFI71:
 611                             		.loc 1 159 1
 612 0004 03                      		nop
 613 0005 7E BA                   		pop	r10
 614 0007 7F 95                   		rte
 615                             	.LFE35:
 617                             		.section	.text.INT_Excep_SCI0_RXI0,"ax",@progbits
 618                             		.global	_INT_Excep_SCI0_RXI0
 620                             	_INT_Excep_SCI0_RXI0:
 621                             	.LFB36:
 160:../generate/inthandler.c **** //;0x00E0  Reserved
 161:../generate/inthandler.c **** 
 162:../generate/inthandler.c **** //;0x00E4  Reserved
 163:../generate/inthandler.c **** 
 164:../generate/inthandler.c **** //;0x00E8 RXI0
 165:../generate/inthandler.c **** void INT_Excep_SCI0_RXI0(void){ }
 622                             		.loc 1 165 31
 623                             		; Note: Interrupt Handler
 624 0000 7E AA                   		push.l	r10
 625                             	.LCFI72:
 626 0002 EF 0A                   		mov.L	r0, r10
 627                             	.LCFI73:
 628                             		.loc 1 165 1
 629 0004 03                      		nop
 630 0005 7E BA                   		pop	r10
 631 0007 7F 95                   		rte
 632                             	.LFE36:
 634                             		.section	.text.INT_Excep_SCI0_TXI0,"ax",@progbits
 635                             		.global	_INT_Excep_SCI0_TXI0
 637                             	_INT_Excep_SCI0_TXI0:
 638                             	.LFB37:
 166:../generate/inthandler.c **** 
 167:../generate/inthandler.c **** //;0x00EC TXI0
 168:../generate/inthandler.c **** void INT_Excep_SCI0_TXI0(void){ }
 639                             		.loc 1 168 31
 640                             		; Note: Interrupt Handler
 641 0000 7E AA                   		push.l	r10
 642                             	.LCFI74:
 643 0002 EF 0A                   		mov.L	r0, r10
 644                             	.LCFI75:
 645                             		.loc 1 168 1
 646 0004 03                      		nop
 647 0005 7E BA                   		pop	r10
 648 0007 7F 95                   		rte
 649                             	.LFE37:
 651                             		.section	.text.INT_Excep_SCI1_RXI1,"ax",@progbits
 652                             		.global	_INT_Excep_SCI1_RXI1
 654                             	_INT_Excep_SCI1_RXI1:
 655                             	.LFB38:
 169:../generate/inthandler.c **** 
 170:../generate/inthandler.c **** //;0x00F0 RXI1
 171:../generate/inthandler.c **** void INT_Excep_SCI1_RXI1(void){ }
 656                             		.loc 1 171 31
 657                             		; Note: Interrupt Handler
 658 0000 7E AA                   		push.l	r10
 659                             	.LCFI76:
 660 0002 EF 0A                   		mov.L	r0, r10
 661                             	.LCFI77:
 662                             		.loc 1 171 1
 663 0004 03                      		nop
 664 0005 7E BA                   		pop	r10
 665 0007 7F 95                   		rte
 666                             	.LFE38:
 668                             		.section	.text.INT_Excep_SCI1_TXI1,"ax",@progbits
 669                             		.global	_INT_Excep_SCI1_TXI1
 671                             	_INT_Excep_SCI1_TXI1:
 672                             	.LFB39:
 172:../generate/inthandler.c **** 
 173:../generate/inthandler.c **** //;0x00F4 TXI1
 174:../generate/inthandler.c **** void INT_Excep_SCI1_TXI1(void){ }
 673                             		.loc 1 174 31
 674                             		; Note: Interrupt Handler
 675 0000 7E AA                   		push.l	r10
 676                             	.LCFI78:
 677 0002 EF 0A                   		mov.L	r0, r10
 678                             	.LCFI79:
 679                             		.loc 1 174 1
 680 0004 03                      		nop
 681 0005 7E BA                   		pop	r10
 682 0007 7F 95                   		rte
 683                             	.LFE39:
 685                             		.section	.text.INT_Excep_SCI2_RXI2,"ax",@progbits
 686                             		.global	_INT_Excep_SCI2_RXI2
 688                             	_INT_Excep_SCI2_RXI2:
 689                             	.LFB40:
 175:../generate/inthandler.c **** 
 176:../generate/inthandler.c **** //;0x00F8 RXI2
 177:../generate/inthandler.c **** void INT_Excep_SCI2_RXI2(void){ }
 690                             		.loc 1 177 31
 691                             		; Note: Interrupt Handler
 692 0000 7E AA                   		push.l	r10
 693                             	.LCFI80:
 694 0002 EF 0A                   		mov.L	r0, r10
 695                             	.LCFI81:
 696                             		.loc 1 177 1
 697 0004 03                      		nop
 698 0005 7E BA                   		pop	r10
 699 0007 7F 95                   		rte
 700                             	.LFE40:
 702                             		.section	.text.INT_Excep_SCI2_TXI2,"ax",@progbits
 703                             		.global	_INT_Excep_SCI2_TXI2
 705                             	_INT_Excep_SCI2_TXI2:
 706                             	.LFB41:
 178:../generate/inthandler.c **** 
 179:../generate/inthandler.c **** //;0x00FC TXI2
 180:../generate/inthandler.c **** void INT_Excep_SCI2_TXI2(void){ }
 707                             		.loc 1 180 31
 708                             		; Note: Interrupt Handler
 709 0000 7E AA                   		push.l	r10
 710                             	.LCFI82:
 711 0002 EF 0A                   		mov.L	r0, r10
 712                             	.LCFI83:
 713                             		.loc 1 180 1
 714 0004 03                      		nop
 715 0005 7E BA                   		pop	r10
 716 0007 7F 95                   		rte
 717                             	.LFE41:
 719                             		.section	.text.INT_Excep_ICU_IRQ0,"ax",@progbits
 720                             		.global	_INT_Excep_ICU_IRQ0
 722                             	_INT_Excep_ICU_IRQ0:
 723                             	.LFB42:
 181:../generate/inthandler.c **** 
 182:../generate/inthandler.c **** //;0x0100 IRQ0
 183:../generate/inthandler.c **** void INT_Excep_ICU_IRQ0(void){ }
 724                             		.loc 1 183 30
 725                             		; Note: Interrupt Handler
 726 0000 7E AA                   		push.l	r10
 727                             	.LCFI84:
 728 0002 EF 0A                   		mov.L	r0, r10
 729                             	.LCFI85:
 730                             		.loc 1 183 1
 731 0004 03                      		nop
 732 0005 7E BA                   		pop	r10
 733 0007 7F 95                   		rte
 734                             	.LFE42:
 736                             		.section	.text.INT_Excep_ICU_IRQ1,"ax",@progbits
 737                             		.global	_INT_Excep_ICU_IRQ1
 739                             	_INT_Excep_ICU_IRQ1:
 740                             	.LFB43:
 184:../generate/inthandler.c **** 
 185:../generate/inthandler.c **** //;0x0104 IRQ1
 186:../generate/inthandler.c **** void INT_Excep_ICU_IRQ1(void){ }
 741                             		.loc 1 186 30
 742                             		; Note: Interrupt Handler
 743 0000 7E AA                   		push.l	r10
 744                             	.LCFI86:
 745 0002 EF 0A                   		mov.L	r0, r10
 746                             	.LCFI87:
 747                             		.loc 1 186 1
 748 0004 03                      		nop
 749 0005 7E BA                   		pop	r10
 750 0007 7F 95                   		rte
 751                             	.LFE43:
 753                             		.section	.text.INT_Excep_ICU_IRQ2,"ax",@progbits
 754                             		.global	_INT_Excep_ICU_IRQ2
 756                             	_INT_Excep_ICU_IRQ2:
 757                             	.LFB44:
 187:../generate/inthandler.c **** 
 188:../generate/inthandler.c **** //;0x0108 IRQ2
 189:../generate/inthandler.c **** void INT_Excep_ICU_IRQ2(void){ }
 758                             		.loc 1 189 30
 759                             		; Note: Interrupt Handler
 760 0000 7E AA                   		push.l	r10
 761                             	.LCFI88:
 762 0002 EF 0A                   		mov.L	r0, r10
 763                             	.LCFI89:
 764                             		.loc 1 189 1
 765 0004 03                      		nop
 766 0005 7E BA                   		pop	r10
 767 0007 7F 95                   		rte
 768                             	.LFE44:
 770                             		.section	.text.INT_Excep_ICU_IRQ3,"ax",@progbits
 771                             		.global	_INT_Excep_ICU_IRQ3
 773                             	_INT_Excep_ICU_IRQ3:
 774                             	.LFB45:
 190:../generate/inthandler.c **** 
 191:../generate/inthandler.c **** //;0x010C IRQ3
 192:../generate/inthandler.c **** void INT_Excep_ICU_IRQ3(void){ }
 775                             		.loc 1 192 30
 776                             		; Note: Interrupt Handler
 777 0000 7E AA                   		push.l	r10
 778                             	.LCFI90:
 779 0002 EF 0A                   		mov.L	r0, r10
 780                             	.LCFI91:
 781                             		.loc 1 192 1
 782 0004 03                      		nop
 783 0005 7E BA                   		pop	r10
 784 0007 7F 95                   		rte
 785                             	.LFE45:
 787                             		.section	.text.INT_Excep_ICU_IRQ4,"ax",@progbits
 788                             		.global	_INT_Excep_ICU_IRQ4
 790                             	_INT_Excep_ICU_IRQ4:
 791                             	.LFB46:
 193:../generate/inthandler.c **** 
 194:../generate/inthandler.c **** //;0x0110 IRQ4
 195:../generate/inthandler.c **** void INT_Excep_ICU_IRQ4(void){ }
 792                             		.loc 1 195 30
 793                             		; Note: Interrupt Handler
 794 0000 7E AA                   		push.l	r10
 795                             	.LCFI92:
 796 0002 EF 0A                   		mov.L	r0, r10
 797                             	.LCFI93:
 798                             		.loc 1 195 1
 799 0004 03                      		nop
 800 0005 7E BA                   		pop	r10
 801 0007 7F 95                   		rte
 802                             	.LFE46:
 804                             		.section	.text.INT_Excep_ICU_IRQ5,"ax",@progbits
 805                             		.global	_INT_Excep_ICU_IRQ5
 807                             	_INT_Excep_ICU_IRQ5:
 808                             	.LFB47:
 196:../generate/inthandler.c **** 
 197:../generate/inthandler.c **** //;0x0114 IRQ5
 198:../generate/inthandler.c **** void INT_Excep_ICU_IRQ5(void){ }
 809                             		.loc 1 198 30
 810                             		; Note: Interrupt Handler
 811 0000 7E AA                   		push.l	r10
 812                             	.LCFI94:
 813 0002 EF 0A                   		mov.L	r0, r10
 814                             	.LCFI95:
 815                             		.loc 1 198 1
 816 0004 03                      		nop
 817 0005 7E BA                   		pop	r10
 818 0007 7F 95                   		rte
 819                             	.LFE47:
 821                             		.section	.text.INT_Excep_ICU_IRQ6,"ax",@progbits
 822                             		.global	_INT_Excep_ICU_IRQ6
 824                             	_INT_Excep_ICU_IRQ6:
 825                             	.LFB48:
 199:../generate/inthandler.c **** 
 200:../generate/inthandler.c **** //;0x0118 IRQ6
 201:../generate/inthandler.c **** void INT_Excep_ICU_IRQ6(void){ }
 826                             		.loc 1 201 30
 827                             		; Note: Interrupt Handler
 828 0000 7E AA                   		push.l	r10
 829                             	.LCFI96:
 830 0002 EF 0A                   		mov.L	r0, r10
 831                             	.LCFI97:
 832                             		.loc 1 201 1
 833 0004 03                      		nop
 834 0005 7E BA                   		pop	r10
 835 0007 7F 95                   		rte
 836                             	.LFE48:
 838                             		.section	.text.INT_Excep_ICU_IRQ7,"ax",@progbits
 839                             		.global	_INT_Excep_ICU_IRQ7
 841                             	_INT_Excep_ICU_IRQ7:
 842                             	.LFB49:
 202:../generate/inthandler.c **** 
 203:../generate/inthandler.c **** //;0x011C IRQ7
 204:../generate/inthandler.c **** void INT_Excep_ICU_IRQ7(void){ }
 843                             		.loc 1 204 30
 844                             		; Note: Interrupt Handler
 845 0000 7E AA                   		push.l	r10
 846                             	.LCFI98:
 847 0002 EF 0A                   		mov.L	r0, r10
 848                             	.LCFI99:
 849                             		.loc 1 204 1
 850 0004 03                      		nop
 851 0005 7E BA                   		pop	r10
 852 0007 7F 95                   		rte
 853                             	.LFE49:
 855                             		.section	.text.INT_Excep_ICU_IRQ8,"ax",@progbits
 856                             		.global	_INT_Excep_ICU_IRQ8
 858                             	_INT_Excep_ICU_IRQ8:
 859                             	.LFB50:
 205:../generate/inthandler.c **** 
 206:../generate/inthandler.c **** //;0x0120 IRQ8
 207:../generate/inthandler.c **** void INT_Excep_ICU_IRQ8(void){ }
 860                             		.loc 1 207 30
 861                             		; Note: Interrupt Handler
 862 0000 7E AA                   		push.l	r10
 863                             	.LCFI100:
 864 0002 EF 0A                   		mov.L	r0, r10
 865                             	.LCFI101:
 866                             		.loc 1 207 1
 867 0004 03                      		nop
 868 0005 7E BA                   		pop	r10
 869 0007 7F 95                   		rte
 870                             	.LFE50:
 872                             		.section	.text.INT_Excep_ICU_IRQ9,"ax",@progbits
 873                             		.global	_INT_Excep_ICU_IRQ9
 875                             	_INT_Excep_ICU_IRQ9:
 876                             	.LFB51:
 208:../generate/inthandler.c **** 
 209:../generate/inthandler.c **** //;0x0124 IRQ9
 210:../generate/inthandler.c **** void INT_Excep_ICU_IRQ9(void){ }
 877                             		.loc 1 210 30
 878                             		; Note: Interrupt Handler
 879 0000 7E AA                   		push.l	r10
 880                             	.LCFI102:
 881 0002 EF 0A                   		mov.L	r0, r10
 882                             	.LCFI103:
 883                             		.loc 1 210 1
 884 0004 03                      		nop
 885 0005 7E BA                   		pop	r10
 886 0007 7F 95                   		rte
 887                             	.LFE51:
 889                             		.section	.text.INT_Excep_ICU_IRQ10,"ax",@progbits
 890                             		.global	_INT_Excep_ICU_IRQ10
 892                             	_INT_Excep_ICU_IRQ10:
 893                             	.LFB52:
 211:../generate/inthandler.c **** 
 212:../generate/inthandler.c **** //;0x0128 IRQ10
 213:../generate/inthandler.c **** void INT_Excep_ICU_IRQ10(void){ }
 894                             		.loc 1 213 31
 895                             		; Note: Interrupt Handler
 896 0000 7E AA                   		push.l	r10
 897                             	.LCFI104:
 898 0002 EF 0A                   		mov.L	r0, r10
 899                             	.LCFI105:
 900                             		.loc 1 213 1
 901 0004 03                      		nop
 902 0005 7E BA                   		pop	r10
 903 0007 7F 95                   		rte
 904                             	.LFE52:
 906                             		.section	.text.INT_Excep_ICU_IRQ11,"ax",@progbits
 907                             		.global	_INT_Excep_ICU_IRQ11
 909                             	_INT_Excep_ICU_IRQ11:
 910                             	.LFB53:
 214:../generate/inthandler.c **** 
 215:../generate/inthandler.c **** //;0x012C IRQ11
 216:../generate/inthandler.c **** void INT_Excep_ICU_IRQ11(void){ }
 911                             		.loc 1 216 31
 912                             		; Note: Interrupt Handler
 913 0000 7E AA                   		push.l	r10
 914                             	.LCFI106:
 915 0002 EF 0A                   		mov.L	r0, r10
 916                             	.LCFI107:
 917                             		.loc 1 216 1
 918 0004 03                      		nop
 919 0005 7E BA                   		pop	r10
 920 0007 7F 95                   		rte
 921                             	.LFE53:
 923                             		.section	.text.INT_Excep_ICU_IRQ12,"ax",@progbits
 924                             		.global	_INT_Excep_ICU_IRQ12
 926                             	_INT_Excep_ICU_IRQ12:
 927                             	.LFB54:
 217:../generate/inthandler.c **** 
 218:../generate/inthandler.c **** //;0x0130 IRQ12
 219:../generate/inthandler.c **** void INT_Excep_ICU_IRQ12(void){ }
 928                             		.loc 1 219 31
 929                             		; Note: Interrupt Handler
 930 0000 7E AA                   		push.l	r10
 931                             	.LCFI108:
 932 0002 EF 0A                   		mov.L	r0, r10
 933                             	.LCFI109:
 934                             		.loc 1 219 1
 935 0004 03                      		nop
 936 0005 7E BA                   		pop	r10
 937 0007 7F 95                   		rte
 938                             	.LFE54:
 940                             		.section	.text.INT_Excep_ICU_IRQ13,"ax",@progbits
 941                             		.global	_INT_Excep_ICU_IRQ13
 943                             	_INT_Excep_ICU_IRQ13:
 944                             	.LFB55:
 220:../generate/inthandler.c **** 
 221:../generate/inthandler.c **** //;0x0134 IRQ13
 222:../generate/inthandler.c **** void INT_Excep_ICU_IRQ13(void){ }
 945                             		.loc 1 222 31
 946                             		; Note: Interrupt Handler
 947 0000 7E AA                   		push.l	r10
 948                             	.LCFI110:
 949 0002 EF 0A                   		mov.L	r0, r10
 950                             	.LCFI111:
 951                             		.loc 1 222 1
 952 0004 03                      		nop
 953 0005 7E BA                   		pop	r10
 954 0007 7F 95                   		rte
 955                             	.LFE55:
 957                             		.section	.text.INT_Excep_ICU_IRQ14,"ax",@progbits
 958                             		.global	_INT_Excep_ICU_IRQ14
 960                             	_INT_Excep_ICU_IRQ14:
 961                             	.LFB56:
 223:../generate/inthandler.c **** 
 224:../generate/inthandler.c **** //;0x0138 IRQ14
 225:../generate/inthandler.c **** void INT_Excep_ICU_IRQ14(void){ }
 962                             		.loc 1 225 31
 963                             		; Note: Interrupt Handler
 964 0000 7E AA                   		push.l	r10
 965                             	.LCFI112:
 966 0002 EF 0A                   		mov.L	r0, r10
 967                             	.LCFI113:
 968                             		.loc 1 225 1
 969 0004 03                      		nop
 970 0005 7E BA                   		pop	r10
 971 0007 7F 95                   		rte
 972                             	.LFE56:
 974                             		.section	.text.INT_Excep_ICU_IRQ15,"ax",@progbits
 975                             		.global	_INT_Excep_ICU_IRQ15
 977                             	_INT_Excep_ICU_IRQ15:
 978                             	.LFB57:
 226:../generate/inthandler.c **** 
 227:../generate/inthandler.c **** //;0x013C IRQ15
 228:../generate/inthandler.c **** void INT_Excep_ICU_IRQ15(void){ }
 979                             		.loc 1 228 31
 980                             		; Note: Interrupt Handler
 981 0000 7E AA                   		push.l	r10
 982                             	.LCFI114:
 983 0002 EF 0A                   		mov.L	r0, r10
 984                             	.LCFI115:
 985                             		.loc 1 228 1
 986 0004 03                      		nop
 987 0005 7E BA                   		pop	r10
 988 0007 7F 95                   		rte
 989                             	.LFE57:
 991                             		.section	.text.INT_Excep_SCI3_RXI3,"ax",@progbits
 992                             		.global	_INT_Excep_SCI3_RXI3
 994                             	_INT_Excep_SCI3_RXI3:
 995                             	.LFB58:
 229:../generate/inthandler.c **** 
 230:../generate/inthandler.c **** //;0x0140 RXI3
 231:../generate/inthandler.c **** void INT_Excep_SCI3_RXI3(void){ }
 996                             		.loc 1 231 31
 997                             		; Note: Interrupt Handler
 998 0000 7E AA                   		push.l	r10
 999                             	.LCFI116:
 1000 0002 EF 0A                   		mov.L	r0, r10
 1001                             	.LCFI117:
 1002                             		.loc 1 231 1
 1003 0004 03                      		nop
 1004 0005 7E BA                   		pop	r10
 1005 0007 7F 95                   		rte
 1006                             	.LFE58:
 1008                             		.section	.text.INT_Excep_SCI3_TXI3,"ax",@progbits
 1009                             		.global	_INT_Excep_SCI3_TXI3
 1011                             	_INT_Excep_SCI3_TXI3:
 1012                             	.LFB59:
 232:../generate/inthandler.c **** 
 233:../generate/inthandler.c **** //;0x0144 TXI3
 234:../generate/inthandler.c **** void INT_Excep_SCI3_TXI3(void){ }
 1013                             		.loc 1 234 31
 1014                             		; Note: Interrupt Handler
 1015 0000 7E AA                   		push.l	r10
 1016                             	.LCFI118:
 1017 0002 EF 0A                   		mov.L	r0, r10
 1018                             	.LCFI119:
 1019                             		.loc 1 234 1
 1020 0004 03                      		nop
 1021 0005 7E BA                   		pop	r10
 1022 0007 7F 95                   		rte
 1023                             	.LFE59:
 1025                             		.section	.text.INT_Excep_SCI4_RXI4,"ax",@progbits
 1026                             		.global	_INT_Excep_SCI4_RXI4
 1028                             	_INT_Excep_SCI4_RXI4:
 1029                             	.LFB60:
 235:../generate/inthandler.c **** 
 236:../generate/inthandler.c **** //;0x0148 RXI4
 237:../generate/inthandler.c **** void INT_Excep_SCI4_RXI4(void){ }
 1030                             		.loc 1 237 31
 1031                             		; Note: Interrupt Handler
 1032 0000 7E AA                   		push.l	r10
 1033                             	.LCFI120:
 1034 0002 EF 0A                   		mov.L	r0, r10
 1035                             	.LCFI121:
 1036                             		.loc 1 237 1
 1037 0004 03                      		nop
 1038 0005 7E BA                   		pop	r10
 1039 0007 7F 95                   		rte
 1040                             	.LFE60:
 1042                             		.section	.text.INT_Excep_SCI4_TXI4,"ax",@progbits
 1043                             		.global	_INT_Excep_SCI4_TXI4
 1045                             	_INT_Excep_SCI4_TXI4:
 1046                             	.LFB61:
 238:../generate/inthandler.c **** 
 239:../generate/inthandler.c **** //;0x014C TXI4
 240:../generate/inthandler.c **** void INT_Excep_SCI4_TXI4(void){ }
 1047                             		.loc 1 240 31
 1048                             		; Note: Interrupt Handler
 1049 0000 7E AA                   		push.l	r10
 1050                             	.LCFI122:
 1051 0002 EF 0A                   		mov.L	r0, r10
 1052                             	.LCFI123:
 1053                             		.loc 1 240 1
 1054 0004 03                      		nop
 1055 0005 7E BA                   		pop	r10
 1056 0007 7F 95                   		rte
 1057                             	.LFE61:
 1059                             		.section	.text.INT_Excep_SCI5_RXI5,"ax",@progbits
 1060                             		.global	_INT_Excep_SCI5_RXI5
 1062                             	_INT_Excep_SCI5_RXI5:
 1063                             	.LFB62:
 241:../generate/inthandler.c **** 
 242:../generate/inthandler.c **** //;0x0150 RXI5
 243:../generate/inthandler.c **** void INT_Excep_SCI5_RXI5(void){ }
 1064                             		.loc 1 243 31
 1065                             		; Note: Interrupt Handler
 1066 0000 7E AA                   		push.l	r10
 1067                             	.LCFI124:
 1068 0002 EF 0A                   		mov.L	r0, r10
 1069                             	.LCFI125:
 1070                             		.loc 1 243 1
 1071 0004 03                      		nop
 1072 0005 7E BA                   		pop	r10
 1073 0007 7F 95                   		rte
 1074                             	.LFE62:
 1076                             		.section	.text.INT_Excep_SCI5_TXI5,"ax",@progbits
 1077                             		.global	_INT_Excep_SCI5_TXI5
 1079                             	_INT_Excep_SCI5_TXI5:
 1080                             	.LFB63:
 244:../generate/inthandler.c **** 
 245:../generate/inthandler.c **** //;0x0154 TXI5
 246:../generate/inthandler.c **** void INT_Excep_SCI5_TXI5(void){ }
 1081                             		.loc 1 246 31
 1082                             		; Note: Interrupt Handler
 1083 0000 7E AA                   		push.l	r10
 1084                             	.LCFI126:
 1085 0002 EF 0A                   		mov.L	r0, r10
 1086                             	.LCFI127:
 1087                             		.loc 1 246 1
 1088 0004 03                      		nop
 1089 0005 7E BA                   		pop	r10
 1090 0007 7F 95                   		rte
 1091                             	.LFE63:
 1093                             		.section	.text.INT_Excep_SCI6_RXI6,"ax",@progbits
 1094                             		.global	_INT_Excep_SCI6_RXI6
 1096                             	_INT_Excep_SCI6_RXI6:
 1097                             	.LFB64:
 247:../generate/inthandler.c **** 
 248:../generate/inthandler.c **** //;0x0158 RXI6
 249:../generate/inthandler.c **** void INT_Excep_SCI6_RXI6(void){ }
 1098                             		.loc 1 249 31
 1099                             		; Note: Interrupt Handler
 1100 0000 7E AA                   		push.l	r10
 1101                             	.LCFI128:
 1102 0002 EF 0A                   		mov.L	r0, r10
 1103                             	.LCFI129:
 1104                             		.loc 1 249 1
 1105 0004 03                      		nop
 1106 0005 7E BA                   		pop	r10
 1107 0007 7F 95                   		rte
 1108                             	.LFE64:
 1110                             		.section	.text.INT_Excep_SCI6_TXI6,"ax",@progbits
 1111                             		.global	_INT_Excep_SCI6_TXI6
 1113                             	_INT_Excep_SCI6_TXI6:
 1114                             	.LFB65:
 250:../generate/inthandler.c **** 
 251:../generate/inthandler.c **** //;0x015C TXI6
 252:../generate/inthandler.c **** void INT_Excep_SCI6_TXI6(void){ }
 1115                             		.loc 1 252 31
 1116                             		; Note: Interrupt Handler
 1117 0000 7E AA                   		push.l	r10
 1118                             	.LCFI130:
 1119 0002 EF 0A                   		mov.L	r0, r10
 1120                             	.LCFI131:
 1121                             		.loc 1 252 1
 1122 0004 03                      		nop
 1123 0005 7E BA                   		pop	r10
 1124 0007 7F 95                   		rte
 1125                             	.LFE65:
 1127                             		.section	.text.INT_Excep_LVD1_LVD1,"ax",@progbits
 1128                             		.global	_INT_Excep_LVD1_LVD1
 1130                             	_INT_Excep_LVD1_LVD1:
 1131                             	.LFB66:
 253:../generate/inthandler.c **** 
 254:../generate/inthandler.c **** //;0x0160 COMPA1
 255:../generate/inthandler.c **** void INT_Excep_LVD1_LVD1(void){ }
 1132                             		.loc 1 255 31
 1133                             		; Note: Interrupt Handler
 1134 0000 7E AA                   		push.l	r10
 1135                             	.LCFI132:
 1136 0002 EF 0A                   		mov.L	r0, r10
 1137                             	.LCFI133:
 1138                             		.loc 1 255 1
 1139 0004 03                      		nop
 1140 0005 7E BA                   		pop	r10
 1141 0007 7F 95                   		rte
 1142                             	.LFE66:
 1144                             		.section	.text.INT_Excep_LVD2_LVD2,"ax",@progbits
 1145                             		.global	_INT_Excep_LVD2_LVD2
 1147                             	_INT_Excep_LVD2_LVD2:
 1148                             	.LFB67:
 256:../generate/inthandler.c **** 
 257:../generate/inthandler.c **** //;0x0164 COMPA2
 258:../generate/inthandler.c **** void INT_Excep_LVD2_LVD2(void){ }
 1149                             		.loc 1 258 31
 1150                             		; Note: Interrupt Handler
 1151 0000 7E AA                   		push.l	r10
 1152                             	.LCFI134:
 1153 0002 EF 0A                   		mov.L	r0, r10
 1154                             	.LCFI135:
 1155                             		.loc 1 258 1
 1156 0004 03                      		nop
 1157 0005 7E BA                   		pop	r10
 1158 0007 7F 95                   		rte
 1159                             	.LFE67:
 1161                             		.section	.text.INT_Excep_USB0_USBR0,"ax",@progbits
 1162                             		.global	_INT_Excep_USB0_USBR0
 1164                             	_INT_Excep_USB0_USBR0:
 1165                             	.LFB68:
 259:../generate/inthandler.c **** 
 260:../generate/inthandler.c **** //;0x0168 USBR0
 261:../generate/inthandler.c **** void INT_Excep_USB0_USBR0(void){ }
 1166                             		.loc 1 261 32
 1167                             		; Note: Interrupt Handler
 1168 0000 7E AA                   		push.l	r10
 1169                             	.LCFI136:
 1170 0002 EF 0A                   		mov.L	r0, r10
 1171                             	.LCFI137:
 1172                             		.loc 1 261 1
 1173 0004 03                      		nop
 1174 0005 7E BA                   		pop	r10
 1175 0007 7F 95                   		rte
 1176                             	.LFE68:
 1178                             		.section	.text.INT_Excep_RTC_ALM,"ax",@progbits
 1179                             		.global	_INT_Excep_RTC_ALM
 1181                             	_INT_Excep_RTC_ALM:
 1182                             	.LFB69:
 262:../generate/inthandler.c **** //;0x016C Reserved
 263:../generate/inthandler.c **** 
 264:../generate/inthandler.c **** //;0x0170 ALM
 265:../generate/inthandler.c **** void INT_Excep_RTC_ALM(void){ }
 1183                             		.loc 1 265 29
 1184                             		; Note: Interrupt Handler
 1185 0000 7E AA                   		push.l	r10
 1186                             	.LCFI138:
 1187 0002 EF 0A                   		mov.L	r0, r10
 1188                             	.LCFI139:
 1189                             		.loc 1 265 1
 1190 0004 03                      		nop
 1191 0005 7E BA                   		pop	r10
 1192 0007 7F 95                   		rte
 1193                             	.LFE69:
 1195                             		.section	.text.INT_Excep_RTC_PRD,"ax",@progbits
 1196                             		.global	_INT_Excep_RTC_PRD
 1198                             	_INT_Excep_RTC_PRD:
 1199                             	.LFB70:
 266:../generate/inthandler.c **** 
 267:../generate/inthandler.c **** //;0x0174 PRD
 268:../generate/inthandler.c **** void INT_Excep_RTC_PRD(void){ }
 1200                             		.loc 1 268 29
 1201                             		; Note: Interrupt Handler
 1202 0000 7E AA                   		push.l	r10
 1203                             	.LCFI140:
 1204 0002 EF 0A                   		mov.L	r0, r10
 1205                             	.LCFI141:
 1206                             		.loc 1 268 1
 1207 0004 03                      		nop
 1208 0005 7E BA                   		pop	r10
 1209 0007 7F 95                   		rte
 1210                             	.LFE70:
 1212                             		.section	.text.INT_Excep_USBA_USBAR,"ax",@progbits
 1213                             		.global	_INT_Excep_USBA_USBAR
 1215                             	_INT_Excep_USBA_USBAR:
 1216                             	.LFB71:
 269:../generate/inthandler.c **** 
 270:../generate/inthandler.c **** //;0x0178 HSUSBR
 271:../generate/inthandler.c **** void INT_Excep_USBA_USBAR(void){ }
 1217                             		.loc 1 271 32
 1218                             		; Note: Interrupt Handler
 1219 0000 7E AA                   		push.l	r10
 1220                             	.LCFI142:
 1221 0002 EF 0A                   		mov.L	r0, r10
 1222                             	.LCFI143:
 1223                             		.loc 1 271 1
 1224 0004 03                      		nop
 1225 0005 7E BA                   		pop	r10
 1226 0007 7F 95                   		rte
 1227                             	.LFE71:
 1229                             		.section	.text.INT_Excep_IWDT_IWUNI,"ax",@progbits
 1230                             		.global	_INT_Excep_IWDT_IWUNI
 1232                             	_INT_Excep_IWDT_IWUNI:
 1233                             	.LFB72:
 272:../generate/inthandler.c **** 
 273:../generate/inthandler.c **** //;0x017C IWUNI
 274:../generate/inthandler.c **** void INT_Excep_IWDT_IWUNI(void){ }
 1234                             		.loc 1 274 32
 1235                             		; Note: Interrupt Handler
 1236 0000 7E AA                   		push.l	r10
 1237                             	.LCFI144:
 1238 0002 EF 0A                   		mov.L	r0, r10
 1239                             	.LCFI145:
 1240                             		.loc 1 274 1
 1241 0004 03                      		nop
 1242 0005 7E BA                   		pop	r10
 1243 0007 7F 95                   		rte
 1244                             	.LFE72:
 1246                             		.section	.text.INT_Excep_WDT_WUNI,"ax",@progbits
 1247                             		.global	_INT_Excep_WDT_WUNI
 1249                             	_INT_Excep_WDT_WUNI:
 1250                             	.LFB73:
 275:../generate/inthandler.c **** 
 276:../generate/inthandler.c **** //;0x0180 WUNI
 277:../generate/inthandler.c **** void INT_Excep_WDT_WUNI(void){ }
 1251                             		.loc 1 277 30
 1252                             		; Note: Interrupt Handler
 1253 0000 7E AA                   		push.l	r10
 1254                             	.LCFI146:
 1255 0002 EF 0A                   		mov.L	r0, r10
 1256                             	.LCFI147:
 1257                             		.loc 1 277 1
 1258 0004 03                      		nop
 1259 0005 7E BA                   		pop	r10
 1260 0007 7F 95                   		rte
 1261                             	.LFE73:
 1263                             		.section	.text.INT_Excep_PDC_PCDFI,"ax",@progbits
 1264                             		.global	_INT_Excep_PDC_PCDFI
 1266                             	_INT_Excep_PDC_PCDFI:
 1267                             	.LFB74:
 278:../generate/inthandler.c **** 
 279:../generate/inthandler.c **** //;0x0184 PCDFI
 280:../generate/inthandler.c **** void INT_Excep_PDC_PCDFI(void){ }
 1268                             		.loc 1 280 31
 1269                             		; Note: Interrupt Handler
 1270 0000 7E AA                   		push.l	r10
 1271                             	.LCFI148:
 1272 0002 EF 0A                   		mov.L	r0, r10
 1273                             	.LCFI149:
 1274                             		.loc 1 280 1
 1275 0004 03                      		nop
 1276 0005 7E BA                   		pop	r10
 1277 0007 7F 95                   		rte
 1278                             	.LFE74:
 1280                             		.section	.text.INT_Excep_SCI7_RXI7,"ax",@progbits
 1281                             		.global	_INT_Excep_SCI7_RXI7
 1283                             	_INT_Excep_SCI7_RXI7:
 1284                             	.LFB75:
 281:../generate/inthandler.c **** 
 282:../generate/inthandler.c **** //;0x0188 RXI7
 283:../generate/inthandler.c **** void INT_Excep_SCI7_RXI7(void){ }
 1285                             		.loc 1 283 31
 1286                             		; Note: Interrupt Handler
 1287 0000 7E AA                   		push.l	r10
 1288                             	.LCFI150:
 1289 0002 EF 0A                   		mov.L	r0, r10
 1290                             	.LCFI151:
 1291                             		.loc 1 283 1
 1292 0004 03                      		nop
 1293 0005 7E BA                   		pop	r10
 1294 0007 7F 95                   		rte
 1295                             	.LFE75:
 1297                             		.section	.text.INT_Excep_SCI7_TXI7,"ax",@progbits
 1298                             		.global	_INT_Excep_SCI7_TXI7
 1300                             	_INT_Excep_SCI7_TXI7:
 1301                             	.LFB76:
 284:../generate/inthandler.c **** 
 285:../generate/inthandler.c **** //;0x018C TXI7
 286:../generate/inthandler.c **** void INT_Excep_SCI7_TXI7(void){ }
 1302                             		.loc 1 286 31
 1303                             		; Note: Interrupt Handler
 1304 0000 7E AA                   		push.l	r10
 1305                             	.LCFI152:
 1306 0002 EF 0A                   		mov.L	r0, r10
 1307                             	.LCFI153:
 1308                             		.loc 1 286 1
 1309 0004 03                      		nop
 1310 0005 7E BA                   		pop	r10
 1311 0007 7F 95                   		rte
 1312                             	.LFE76:
 1314                             		.section	.text.INT_Excep_SCIFA8_RXIF8,"ax",@progbits
 1315                             		.global	_INT_Excep_SCIFA8_RXIF8
 1317                             	_INT_Excep_SCIFA8_RXIF8:
 1318                             	.LFB77:
 287:../generate/inthandler.c **** 
 288:../generate/inthandler.c **** //;0x0190 RXIF8
 289:../generate/inthandler.c **** void INT_Excep_SCIFA8_RXIF8(void){ }
 1319                             		.loc 1 289 34
 1320                             		; Note: Interrupt Handler
 1321 0000 7E AA                   		push.l	r10
 1322                             	.LCFI154:
 1323 0002 EF 0A                   		mov.L	r0, r10
 1324                             	.LCFI155:
 1325                             		.loc 1 289 1
 1326 0004 03                      		nop
 1327 0005 7E BA                   		pop	r10
 1328 0007 7F 95                   		rte
 1329                             	.LFE77:
 1331                             		.section	.text.INT_Excep_SCIFA8_TXIF8,"ax",@progbits
 1332                             		.global	_INT_Excep_SCIFA8_TXIF8
 1334                             	_INT_Excep_SCIFA8_TXIF8:
 1335                             	.LFB78:
 290:../generate/inthandler.c **** 
 291:../generate/inthandler.c **** //;0x0194 TXIF8
 292:../generate/inthandler.c **** void INT_Excep_SCIFA8_TXIF8(void){ }
 1336                             		.loc 1 292 34
 1337                             		; Note: Interrupt Handler
 1338 0000 7E AA                   		push.l	r10
 1339                             	.LCFI156:
 1340 0002 EF 0A                   		mov.L	r0, r10
 1341                             	.LCFI157:
 1342                             		.loc 1 292 1
 1343 0004 03                      		nop
 1344 0005 7E BA                   		pop	r10
 1345 0007 7F 95                   		rte
 1346                             	.LFE78:
 1348                             		.section	.text.INT_Excep_SCIFA9_RXIF9,"ax",@progbits
 1349                             		.global	_INT_Excep_SCIFA9_RXIF9
 1351                             	_INT_Excep_SCIFA9_RXIF9:
 1352                             	.LFB79:
 293:../generate/inthandler.c **** 
 294:../generate/inthandler.c **** //;0x0198 RXIF9
 295:../generate/inthandler.c **** void INT_Excep_SCIFA9_RXIF9(void){ }
 1353                             		.loc 1 295 34
 1354                             		; Note: Interrupt Handler
 1355 0000 7E AA                   		push.l	r10
 1356                             	.LCFI158:
 1357 0002 EF 0A                   		mov.L	r0, r10
 1358                             	.LCFI159:
 1359                             		.loc 1 295 1
 1360 0004 03                      		nop
 1361 0005 7E BA                   		pop	r10
 1362 0007 7F 95                   		rte
 1363                             	.LFE79:
 1365                             		.section	.text.INT_Excep_SCIFA9_TXIF9,"ax",@progbits
 1366                             		.global	_INT_Excep_SCIFA9_TXIF9
 1368                             	_INT_Excep_SCIFA9_TXIF9:
 1369                             	.LFB80:
 296:../generate/inthandler.c **** 
 297:../generate/inthandler.c **** //;0x019C TXIF9
 298:../generate/inthandler.c **** void INT_Excep_SCIFA9_TXIF9(void){ }
 1370                             		.loc 1 298 34
 1371                             		; Note: Interrupt Handler
 1372 0000 7E AA                   		push.l	r10
 1373                             	.LCFI160:
 1374 0002 EF 0A                   		mov.L	r0, r10
 1375                             	.LCFI161:
 1376                             		.loc 1 298 1
 1377 0004 03                      		nop
 1378 0005 7E BA                   		pop	r10
 1379 0007 7F 95                   		rte
 1380                             	.LFE80:
 1382                             		.section	.text.INT_Excep_SCIFA10_RXIF10,"ax",@progbits
 1383                             		.global	_INT_Excep_SCIFA10_RXIF10
 1385                             	_INT_Excep_SCIFA10_RXIF10:
 1386                             	.LFB81:
 299:../generate/inthandler.c **** 
 300:../generate/inthandler.c **** //;0x01A0 RXIF10
 301:../generate/inthandler.c **** void INT_Excep_SCIFA10_RXIF10(void){ }
 1387                             		.loc 1 301 36
 1388                             		; Note: Interrupt Handler
 1389 0000 7E AA                   		push.l	r10
 1390                             	.LCFI162:
 1391 0002 EF 0A                   		mov.L	r0, r10
 1392                             	.LCFI163:
 1393                             		.loc 1 301 1
 1394 0004 03                      		nop
 1395 0005 7E BA                   		pop	r10
 1396 0007 7F 95                   		rte
 1397                             	.LFE81:
 1399                             		.section	.text.INT_Excep_SCIFA10_TXIF10,"ax",@progbits
 1400                             		.global	_INT_Excep_SCIFA10_TXIF10
 1402                             	_INT_Excep_SCIFA10_TXIF10:
 1403                             	.LFB82:
 302:../generate/inthandler.c **** 
 303:../generate/inthandler.c **** //;0x01A4 TXIF10
 304:../generate/inthandler.c **** void INT_Excep_SCIFA10_TXIF10(void){ }
 1404                             		.loc 1 304 36
 1405                             		; Note: Interrupt Handler
 1406 0000 7E AA                   		push.l	r10
 1407                             	.LCFI164:
 1408 0002 EF 0A                   		mov.L	r0, r10
 1409                             	.LCFI165:
 1410                             		.loc 1 304 1
 1411 0004 03                      		nop
 1412 0005 7E BA                   		pop	r10
 1413 0007 7F 95                   		rte
 1414                             	.LFE82:
 1416                             		.section	.text.INT_Excep_ICU_GROUPBE0,"ax",@progbits
 1417                             		.global	_INT_Excep_ICU_GROUPBE0
 1419                             	_INT_Excep_ICU_GROUPBE0:
 1420                             	.LFB83:
 305:../generate/inthandler.c **** 
 306:../generate/inthandler.c **** //;0x01A8 GROUPBE0
 307:../generate/inthandler.c **** void INT_Excep_ICU_GROUPBE0(void){ }
 1421                             		.loc 1 307 34
 1422                             		; Note: Interrupt Handler
 1423 0000 7E AA                   		push.l	r10
 1424                             	.LCFI166:
 1425 0002 EF 0A                   		mov.L	r0, r10
 1426                             	.LCFI167:
 1427                             		.loc 1 307 1
 1428 0004 03                      		nop
 1429 0005 7E BA                   		pop	r10
 1430 0007 7F 95                   		rte
 1431                             	.LFE83:
 1433                             		.section	.text.INT_Excep_ICU_GROUPBL0,"ax",@progbits
 1434                             		.global	_INT_Excep_ICU_GROUPBL0
 1436                             	_INT_Excep_ICU_GROUPBL0:
 1437                             	.LFB84:
 308:../generate/inthandler.c **** //;0x01AC Reserved 
 309:../generate/inthandler.c **** 
 310:../generate/inthandler.c **** //;0x01B0 Reserved 
 311:../generate/inthandler.c **** 
 312:../generate/inthandler.c **** //;0x01B4 Reserved 
 313:../generate/inthandler.c **** 
 314:../generate/inthandler.c **** //;0x01B8 GROUPBL0
 315:../generate/inthandler.c **** void INT_Excep_ICU_GROUPBL0(void){ }
 1438                             		.loc 1 315 34
 1439                             		; Note: Interrupt Handler
 1440 0000 7E AA                   		push.l	r10
 1441                             	.LCFI168:
 1442 0002 EF 0A                   		mov.L	r0, r10
 1443                             	.LCFI169:
 1444                             		.loc 1 315 1
 1445 0004 03                      		nop
 1446 0005 7E BA                   		pop	r10
 1447 0007 7F 95                   		rte
 1448                             	.LFE84:
 1450                             		.section	.text.INT_Excep_ICU_GROUPBL1,"ax",@progbits
 1451                             		.global	_INT_Excep_ICU_GROUPBL1
 1453                             	_INT_Excep_ICU_GROUPBL1:
 1454                             	.LFB85:
 316:../generate/inthandler.c **** 
 317:../generate/inthandler.c **** //;0x01BC GROUPBL1
 318:../generate/inthandler.c **** void INT_Excep_ICU_GROUPBL1(void){ }
 1455                             		.loc 1 318 34
 1456                             		; Note: Interrupt Handler
 1457 0000 7E AA                   		push.l	r10
 1458                             	.LCFI170:
 1459 0002 EF 0A                   		mov.L	r0, r10
 1460                             	.LCFI171:
 1461                             		.loc 1 318 1
 1462 0004 03                      		nop
 1463 0005 7E BA                   		pop	r10
 1464 0007 7F 95                   		rte
 1465                             	.LFE85:
 1467                             		.section	.text.INT_Excep_ICU_GROUPAL0,"ax",@progbits
 1468                             		.global	_INT_Excep_ICU_GROUPAL0
 1470                             	_INT_Excep_ICU_GROUPAL0:
 1471                             	.LFB86:
 319:../generate/inthandler.c **** 
 320:../generate/inthandler.c **** //;0x01C0 GROUPAL0
 321:../generate/inthandler.c **** void INT_Excep_ICU_GROUPAL0(void){ }
 1472                             		.loc 1 321 34
 1473                             		; Note: Interrupt Handler
 1474 0000 7E AA                   		push.l	r10
 1475                             	.LCFI172:
 1476 0002 EF 0A                   		mov.L	r0, r10
 1477                             	.LCFI173:
 1478                             		.loc 1 321 1
 1479 0004 03                      		nop
 1480 0005 7E BA                   		pop	r10
 1481 0007 7F 95                   		rte
 1482                             	.LFE86:
 1484                             		.section	.text.INT_Excep_ICU_GROUPAL1,"ax",@progbits
 1485                             		.global	_INT_Excep_ICU_GROUPAL1
 1487                             	_INT_Excep_ICU_GROUPAL1:
 1488                             	.LFB87:
 322:../generate/inthandler.c **** 
 323:../generate/inthandler.c **** //;0x01C4 GROUPAL1
 324:../generate/inthandler.c **** void INT_Excep_ICU_GROUPAL1(void){ }
 1489                             		.loc 1 324 34
 1490                             		; Note: Interrupt Handler
 1491 0000 7E AA                   		push.l	r10
 1492                             	.LCFI174:
 1493 0002 EF 0A                   		mov.L	r0, r10
 1494                             	.LCFI175:
 1495                             		.loc 1 324 1
 1496 0004 03                      		nop
 1497 0005 7E BA                   		pop	r10
 1498 0007 7F 95                   		rte
 1499                             	.LFE87:
 1501                             		.section	.text.INT_Excep_SCIFA11_RXIF11,"ax",@progbits
 1502                             		.global	_INT_Excep_SCIFA11_RXIF11
 1504                             	_INT_Excep_SCIFA11_RXIF11:
 1505                             	.LFB88:
 325:../generate/inthandler.c **** 
 326:../generate/inthandler.c **** //;0x01C8 RXIF11
 327:../generate/inthandler.c **** void INT_Excep_SCIFA11_RXIF11(void){ }
 1506                             		.loc 1 327 36
 1507                             		; Note: Interrupt Handler
 1508 0000 7E AA                   		push.l	r10
 1509                             	.LCFI176:
 1510 0002 EF 0A                   		mov.L	r0, r10
 1511                             	.LCFI177:
 1512                             		.loc 1 327 1
 1513 0004 03                      		nop
 1514 0005 7E BA                   		pop	r10
 1515 0007 7F 95                   		rte
 1516                             	.LFE88:
 1518                             		.section	.text.INT_Excep_SCIFA11_TXIF11,"ax",@progbits
 1519                             		.global	_INT_Excep_SCIFA11_TXIF11
 1521                             	_INT_Excep_SCIFA11_TXIF11:
 1522                             	.LFB89:
 328:../generate/inthandler.c **** 
 329:../generate/inthandler.c **** //;0x01CC TXIF11
 330:../generate/inthandler.c **** void INT_Excep_SCIFA11_TXIF11(void){ }
 1523                             		.loc 1 330 36
 1524                             		; Note: Interrupt Handler
 1525 0000 7E AA                   		push.l	r10
 1526                             	.LCFI178:
 1527 0002 EF 0A                   		mov.L	r0, r10
 1528                             	.LCFI179:
 1529                             		.loc 1 330 1
 1530 0004 03                      		nop
 1531 0005 7E BA                   		pop	r10
 1532 0007 7F 95                   		rte
 1533                             	.LFE89:
 1535                             		.section	.text.INT_Excep_SCI12_RXI12,"ax",@progbits
 1536                             		.global	_INT_Excep_SCI12_RXI12
 1538                             	_INT_Excep_SCI12_RXI12:
 1539                             	.LFB90:
 331:../generate/inthandler.c **** 
 332:../generate/inthandler.c **** //;0x01D0 RXIF12
 333:../generate/inthandler.c **** void INT_Excep_SCI12_RXI12(void){ }
 1540                             		.loc 1 333 33
 1541                             		; Note: Interrupt Handler
 1542 0000 7E AA                   		push.l	r10
 1543                             	.LCFI180:
 1544 0002 EF 0A                   		mov.L	r0, r10
 1545                             	.LCFI181:
 1546                             		.loc 1 333 1
 1547 0004 03                      		nop
 1548 0005 7E BA                   		pop	r10
 1549 0007 7F 95                   		rte
 1550                             	.LFE90:
 1552                             		.section	.text.INT_Excep_SCI12_TXI12,"ax",@progbits
 1553                             		.global	_INT_Excep_SCI12_TXI12
 1555                             	_INT_Excep_SCI12_TXI12:
 1556                             	.LFB91:
 334:../generate/inthandler.c **** 
 335:../generate/inthandler.c **** //;0x01D4 TXIF12
 336:../generate/inthandler.c **** void INT_Excep_SCI12_TXI12(void){ }
 1557                             		.loc 1 336 33
 1558                             		; Note: Interrupt Handler
 1559 0000 7E AA                   		push.l	r10
 1560                             	.LCFI182:
 1561 0002 EF 0A                   		mov.L	r0, r10
 1562                             	.LCFI183:
 1563                             		.loc 1 336 1
 1564 0004 03                      		nop
 1565 0005 7E BA                   		pop	r10
 1566 0007 7F 95                   		rte
 1567                             	.LFE91:
 1569                             		.section	.text.INT_Excep_DMAC_DMAC0I,"ax",@progbits
 1570                             		.global	_INT_Excep_DMAC_DMAC0I
 1572                             	_INT_Excep_DMAC_DMAC0I:
 1573                             	.LFB92:
 337:../generate/inthandler.c **** 
 338:../generate/inthandler.c **** //;0x01D8 Reserved
 339:../generate/inthandler.c **** 
 340:../generate/inthandler.c **** //;0x01DC Reserved
 341:../generate/inthandler.c **** 
 342:../generate/inthandler.c **** //;0x01E0 DMAC0I
 343:../generate/inthandler.c **** void INT_Excep_DMAC_DMAC0I(void){ }
 1574                             		.loc 1 343 33
 1575                             		; Note: Interrupt Handler
 1576 0000 7E AA                   		push.l	r10
 1577                             	.LCFI184:
 1578 0002 EF 0A                   		mov.L	r0, r10
 1579                             	.LCFI185:
 1580                             		.loc 1 343 1
 1581 0004 03                      		nop
 1582 0005 7E BA                   		pop	r10
 1583 0007 7F 95                   		rte
 1584                             	.LFE92:
 1586                             		.section	.text.INT_Excep_DMAC_DMAC1I,"ax",@progbits
 1587                             		.global	_INT_Excep_DMAC_DMAC1I
 1589                             	_INT_Excep_DMAC_DMAC1I:
 1590                             	.LFB93:
 344:../generate/inthandler.c **** 
 345:../generate/inthandler.c **** //;0x01E4 DMAC1I
 346:../generate/inthandler.c **** void INT_Excep_DMAC_DMAC1I(void){ }
 1591                             		.loc 1 346 33
 1592                             		; Note: Interrupt Handler
 1593 0000 7E AA                   		push.l	r10
 1594                             	.LCFI186:
 1595 0002 EF 0A                   		mov.L	r0, r10
 1596                             	.LCFI187:
 1597                             		.loc 1 346 1
 1598 0004 03                      		nop
 1599 0005 7E BA                   		pop	r10
 1600 0007 7F 95                   		rte
 1601                             	.LFE93:
 1603                             		.section	.text.INT_Excep_DMAC_DMAC2I,"ax",@progbits
 1604                             		.global	_INT_Excep_DMAC_DMAC2I
 1606                             	_INT_Excep_DMAC_DMAC2I:
 1607                             	.LFB94:
 347:../generate/inthandler.c **** 
 348:../generate/inthandler.c **** //;0x01E8 DMAC2I
 349:../generate/inthandler.c **** void INT_Excep_DMAC_DMAC2I(void){ }
 1608                             		.loc 1 349 33
 1609                             		; Note: Interrupt Handler
 1610 0000 7E AA                   		push.l	r10
 1611                             	.LCFI188:
 1612 0002 EF 0A                   		mov.L	r0, r10
 1613                             	.LCFI189:
 1614                             		.loc 1 349 1
 1615 0004 03                      		nop
 1616 0005 7E BA                   		pop	r10
 1617 0007 7F 95                   		rte
 1618                             	.LFE94:
 1620                             		.section	.text.INT_Excep_DMAC_DMAC3I,"ax",@progbits
 1621                             		.global	_INT_Excep_DMAC_DMAC3I
 1623                             	_INT_Excep_DMAC_DMAC3I:
 1624                             	.LFB95:
 350:../generate/inthandler.c **** 
 351:../generate/inthandler.c **** //;0x01EC DMAC3I
 352:../generate/inthandler.c **** void INT_Excep_DMAC_DMAC3I(void){ }
 1625                             		.loc 1 352 33
 1626                             		; Note: Interrupt Handler
 1627 0000 7E AA                   		push.l	r10
 1628                             	.LCFI190:
 1629 0002 EF 0A                   		mov.L	r0, r10
 1630                             	.LCFI191:
 1631                             		.loc 1 352 1
 1632 0004 03                      		nop
 1633 0005 7E BA                   		pop	r10
 1634 0007 7F 95                   		rte
 1635                             	.LFE95:
 1637                             		.section	.text.INT_Excep_DMAC_DMAC74I,"ax",@progbits
 1638                             		.global	_INT_Excep_DMAC_DMAC74I
 1640                             	_INT_Excep_DMAC_DMAC74I:
 1641                             	.LFB96:
 353:../generate/inthandler.c **** 
 354:../generate/inthandler.c **** //;0x01F0 DMAC74I
 355:../generate/inthandler.c **** void INT_Excep_DMAC_DMAC74I(void){ }
 1642                             		.loc 1 355 34
 1643                             		; Note: Interrupt Handler
 1644 0000 7E AA                   		push.l	r10
 1645                             	.LCFI192:
 1646 0002 EF 0A                   		mov.L	r0, r10
 1647                             	.LCFI193:
 1648                             		.loc 1 355 1
 1649 0004 03                      		nop
 1650 0005 7E BA                   		pop	r10
 1651 0007 7F 95                   		rte
 1652                             	.LFE96:
 1654                             		.section	.text.INT_Excep_OST_OST,"ax",@progbits
 1655                             		.global	_INT_Excep_OST_OST
 1657                             	_INT_Excep_OST_OST:
 1658                             	.LFB97:
 356:../generate/inthandler.c **** 
 357:../generate/inthandler.c **** //;0x01F4 OST
 358:../generate/inthandler.c **** void INT_Excep_OST_OST(void){ }
 1659                             		.loc 1 358 29
 1660                             		; Note: Interrupt Handler
 1661 0000 7E AA                   		push.l	r10
 1662                             	.LCFI194:
 1663 0002 EF 0A                   		mov.L	r0, r10
 1664                             	.LCFI195:
 1665                             		.loc 1 358 1
 1666 0004 03                      		nop
 1667 0005 7E BA                   		pop	r10
 1668 0007 7F 95                   		rte
 1669                             	.LFE97:
 1671                             		.section	.text.INT_Excep_EXDMAC_EXDMAC0I,"ax",@progbits
 1672                             		.global	_INT_Excep_EXDMAC_EXDMAC0I
 1674                             	_INT_Excep_EXDMAC_EXDMAC0I:
 1675                             	.LFB98:
 359:../generate/inthandler.c **** 
 360:../generate/inthandler.c **** //;0x01F8  EXDMAC0I
 361:../generate/inthandler.c **** void INT_Excep_EXDMAC_EXDMAC0I(void){ }
 1676                             		.loc 1 361 37
 1677                             		; Note: Interrupt Handler
 1678 0000 7E AA                   		push.l	r10
 1679                             	.LCFI196:
 1680 0002 EF 0A                   		mov.L	r0, r10
 1681                             	.LCFI197:
 1682                             		.loc 1 361 1
 1683 0004 03                      		nop
 1684 0005 7E BA                   		pop	r10
 1685 0007 7F 95                   		rte
 1686                             	.LFE98:
 1688                             		.section	.text.INT_Excep_EXDMAC_EXDMAC1I,"ax",@progbits
 1689                             		.global	_INT_Excep_EXDMAC_EXDMAC1I
 1691                             	_INT_Excep_EXDMAC_EXDMAC1I:
 1692                             	.LFB99:
 362:../generate/inthandler.c **** 
 363:../generate/inthandler.c **** //;0x01FC  EXDMAC1I
 364:../generate/inthandler.c **** void INT_Excep_EXDMAC_EXDMAC1I(void){ }
 1693                             		.loc 1 364 37
 1694                             		; Note: Interrupt Handler
 1695 0000 7E AA                   		push.l	r10
 1696                             	.LCFI198:
 1697 0002 EF 0A                   		mov.L	r0, r10
 1698                             	.LCFI199:
 1699                             		.loc 1 364 1
 1700 0004 03                      		nop
 1701 0005 7E BA                   		pop	r10
 1702 0007 7F 95                   		rte
 1703                             	.LFE99:
 1705                             		.section	.text.INT_Excep_PERIB_INTB128,"ax",@progbits
 1706                             		.global	_INT_Excep_PERIB_INTB128
 1708                             	_INT_Excep_PERIB_INTB128:
 1709                             	.LFB100:
 365:../generate/inthandler.c **** 
 366:../generate/inthandler.c **** //;0x0200  INTB128
 367:../generate/inthandler.c **** void INT_Excep_PERIB_INTB128(void){ }
 1710                             		.loc 1 367 35
 1711                             		; Note: Interrupt Handler
 1712 0000 7E AA                   		push.l	r10
 1713                             	.LCFI200:
 1714 0002 EF 0A                   		mov.L	r0, r10
 1715                             	.LCFI201:
 1716                             		.loc 1 367 1
 1717 0004 03                      		nop
 1718 0005 7E BA                   		pop	r10
 1719 0007 7F 95                   		rte
 1720                             	.LFE100:
 1722                             		.section	.text.INT_Excep_PERIB_INTB129,"ax",@progbits
 1723                             		.global	_INT_Excep_PERIB_INTB129
 1725                             	_INT_Excep_PERIB_INTB129:
 1726                             	.LFB101:
 368:../generate/inthandler.c **** 
 369:../generate/inthandler.c **** //;0x0204 INTB129
 370:../generate/inthandler.c **** void INT_Excep_PERIB_INTB129(void){ }
 1727                             		.loc 1 370 35
 1728                             		; Note: Interrupt Handler
 1729 0000 7E AA                   		push.l	r10
 1730                             	.LCFI202:
 1731 0002 EF 0A                   		mov.L	r0, r10
 1732                             	.LCFI203:
 1733                             		.loc 1 370 1
 1734 0004 03                      		nop
 1735 0005 7E BA                   		pop	r10
 1736 0007 7F 95                   		rte
 1737                             	.LFE101:
 1739                             		.section	.text.INT_Excep_PERIB_INTB130,"ax",@progbits
 1740                             		.global	_INT_Excep_PERIB_INTB130
 1742                             	_INT_Excep_PERIB_INTB130:
 1743                             	.LFB102:
 371:../generate/inthandler.c **** 
 372:../generate/inthandler.c **** //;0x0208 INTB130
 373:../generate/inthandler.c **** void INT_Excep_PERIB_INTB130(void){ }
 1744                             		.loc 1 373 35
 1745                             		; Note: Interrupt Handler
 1746 0000 7E AA                   		push.l	r10
 1747                             	.LCFI204:
 1748 0002 EF 0A                   		mov.L	r0, r10
 1749                             	.LCFI205:
 1750                             		.loc 1 373 1
 1751 0004 03                      		nop
 1752 0005 7E BA                   		pop	r10
 1753 0007 7F 95                   		rte
 1754                             	.LFE102:
 1756                             		.section	.text.INT_Excep_PERIB_INTB131,"ax",@progbits
 1757                             		.global	_INT_Excep_PERIB_INTB131
 1759                             	_INT_Excep_PERIB_INTB131:
 1760                             	.LFB103:
 374:../generate/inthandler.c **** 
 375:../generate/inthandler.c **** //;0x020C INTB131
 376:../generate/inthandler.c **** void INT_Excep_PERIB_INTB131(void){ }
 1761                             		.loc 1 376 35
 1762                             		; Note: Interrupt Handler
 1763 0000 7E AA                   		push.l	r10
 1764                             	.LCFI206:
 1765 0002 EF 0A                   		mov.L	r0, r10
 1766                             	.LCFI207:
 1767                             		.loc 1 376 1
 1768 0004 03                      		nop
 1769 0005 7E BA                   		pop	r10
 1770 0007 7F 95                   		rte
 1771                             	.LFE103:
 1773                             		.section	.text.INT_Excep_PERIB_INTB132,"ax",@progbits
 1774                             		.global	_INT_Excep_PERIB_INTB132
 1776                             	_INT_Excep_PERIB_INTB132:
 1777                             	.LFB104:
 377:../generate/inthandler.c **** 
 378:../generate/inthandler.c **** //;0x0210 INTB132
 379:../generate/inthandler.c **** void INT_Excep_PERIB_INTB132(void){ }
 1778                             		.loc 1 379 35
 1779                             		; Note: Interrupt Handler
 1780 0000 7E AA                   		push.l	r10
 1781                             	.LCFI208:
 1782 0002 EF 0A                   		mov.L	r0, r10
 1783                             	.LCFI209:
 1784                             		.loc 1 379 1
 1785 0004 03                      		nop
 1786 0005 7E BA                   		pop	r10
 1787 0007 7F 95                   		rte
 1788                             	.LFE104:
 1790                             		.section	.text.INT_Excep_PERIB_INTB133,"ax",@progbits
 1791                             		.global	_INT_Excep_PERIB_INTB133
 1793                             	_INT_Excep_PERIB_INTB133:
 1794                             	.LFB105:
 380:../generate/inthandler.c **** 
 381:../generate/inthandler.c **** //;0x0214 INTB133
 382:../generate/inthandler.c **** void INT_Excep_PERIB_INTB133(void){ }
 1795                             		.loc 1 382 35
 1796                             		; Note: Interrupt Handler
 1797 0000 7E AA                   		push.l	r10
 1798                             	.LCFI210:
 1799 0002 EF 0A                   		mov.L	r0, r10
 1800                             	.LCFI211:
 1801                             		.loc 1 382 1
 1802 0004 03                      		nop
 1803 0005 7E BA                   		pop	r10
 1804 0007 7F 95                   		rte
 1805                             	.LFE105:
 1807                             		.section	.text.INT_Excep_PERIB_INTB134,"ax",@progbits
 1808                             		.global	_INT_Excep_PERIB_INTB134
 1810                             	_INT_Excep_PERIB_INTB134:
 1811                             	.LFB106:
 383:../generate/inthandler.c **** 
 384:../generate/inthandler.c **** //;0x0218 INTB134
 385:../generate/inthandler.c **** void INT_Excep_PERIB_INTB134(void){ }
 1812                             		.loc 1 385 35
 1813                             		; Note: Interrupt Handler
 1814 0000 7E AA                   		push.l	r10
 1815                             	.LCFI212:
 1816 0002 EF 0A                   		mov.L	r0, r10
 1817                             	.LCFI213:
 1818                             		.loc 1 385 1
 1819 0004 03                      		nop
 1820 0005 7E BA                   		pop	r10
 1821 0007 7F 95                   		rte
 1822                             	.LFE106:
 1824                             		.section	.text.INT_Excep_PERIB_INTB135,"ax",@progbits
 1825                             		.global	_INT_Excep_PERIB_INTB135
 1827                             	_INT_Excep_PERIB_INTB135:
 1828                             	.LFB107:
 386:../generate/inthandler.c **** 
 387:../generate/inthandler.c **** //;0x021C INTB135
 388:../generate/inthandler.c **** void INT_Excep_PERIB_INTB135(void){ }
 1829                             		.loc 1 388 35
 1830                             		; Note: Interrupt Handler
 1831 0000 7E AA                   		push.l	r10
 1832                             	.LCFI214:
 1833 0002 EF 0A                   		mov.L	r0, r10
 1834                             	.LCFI215:
 1835                             		.loc 1 388 1
 1836 0004 03                      		nop
 1837 0005 7E BA                   		pop	r10
 1838 0007 7F 95                   		rte
 1839                             	.LFE107:
 1841                             		.section	.text.INT_Excep_PERIB_INTB136,"ax",@progbits
 1842                             		.global	_INT_Excep_PERIB_INTB136
 1844                             	_INT_Excep_PERIB_INTB136:
 1845                             	.LFB108:
 389:../generate/inthandler.c **** 
 390:../generate/inthandler.c **** //;0x0220 INTB136
 391:../generate/inthandler.c **** void INT_Excep_PERIB_INTB136(void){ }
 1846                             		.loc 1 391 35
 1847                             		; Note: Interrupt Handler
 1848 0000 7E AA                   		push.l	r10
 1849                             	.LCFI216:
 1850 0002 EF 0A                   		mov.L	r0, r10
 1851                             	.LCFI217:
 1852                             		.loc 1 391 1
 1853 0004 03                      		nop
 1854 0005 7E BA                   		pop	r10
 1855 0007 7F 95                   		rte
 1856                             	.LFE108:
 1858                             		.section	.text.INT_Excep_PERIB_INTB137,"ax",@progbits
 1859                             		.global	_INT_Excep_PERIB_INTB137
 1861                             	_INT_Excep_PERIB_INTB137:
 1862                             	.LFB109:
 392:../generate/inthandler.c **** 
 393:../generate/inthandler.c **** //;0x0224 INTB137
 394:../generate/inthandler.c **** void INT_Excep_PERIB_INTB137(void){ }
 1863                             		.loc 1 394 35
 1864                             		; Note: Interrupt Handler
 1865 0000 7E AA                   		push.l	r10
 1866                             	.LCFI218:
 1867 0002 EF 0A                   		mov.L	r0, r10
 1868                             	.LCFI219:
 1869                             		.loc 1 394 1
 1870 0004 03                      		nop
 1871 0005 7E BA                   		pop	r10
 1872 0007 7F 95                   		rte
 1873                             	.LFE109:
 1875                             		.section	.text.INT_Excep_PERIB_INTB138,"ax",@progbits
 1876                             		.global	_INT_Excep_PERIB_INTB138
 1878                             	_INT_Excep_PERIB_INTB138:
 1879                             	.LFB110:
 395:../generate/inthandler.c **** 
 396:../generate/inthandler.c **** //;0x0228 INTB138
 397:../generate/inthandler.c **** void INT_Excep_PERIB_INTB138(void){ }
 1880                             		.loc 1 397 35
 1881                             		; Note: Interrupt Handler
 1882 0000 7E AA                   		push.l	r10
 1883                             	.LCFI220:
 1884 0002 EF 0A                   		mov.L	r0, r10
 1885                             	.LCFI221:
 1886                             		.loc 1 397 1
 1887 0004 03                      		nop
 1888 0005 7E BA                   		pop	r10
 1889 0007 7F 95                   		rte
 1890                             	.LFE110:
 1892                             		.section	.text.INT_Excep_PERIB_INTB139,"ax",@progbits
 1893                             		.global	_INT_Excep_PERIB_INTB139
 1895                             	_INT_Excep_PERIB_INTB139:
 1896                             	.LFB111:
 398:../generate/inthandler.c **** 
 399:../generate/inthandler.c **** //;0x022C INTB139
 400:../generate/inthandler.c **** void INT_Excep_PERIB_INTB139(void){ }
 1897                             		.loc 1 400 35
 1898                             		; Note: Interrupt Handler
 1899 0000 7E AA                   		push.l	r10
 1900                             	.LCFI222:
 1901 0002 EF 0A                   		mov.L	r0, r10
 1902                             	.LCFI223:
 1903                             		.loc 1 400 1
 1904 0004 03                      		nop
 1905 0005 7E BA                   		pop	r10
 1906 0007 7F 95                   		rte
 1907                             	.LFE111:
 1909                             		.section	.text.INT_Excep_PERIB_INTB140,"ax",@progbits
 1910                             		.global	_INT_Excep_PERIB_INTB140
 1912                             	_INT_Excep_PERIB_INTB140:
 1913                             	.LFB112:
 401:../generate/inthandler.c **** 
 402:../generate/inthandler.c **** //;0x0230 INTB140
 403:../generate/inthandler.c **** void INT_Excep_PERIB_INTB140(void){ }
 1914                             		.loc 1 403 35
 1915                             		; Note: Interrupt Handler
 1916 0000 7E AA                   		push.l	r10
 1917                             	.LCFI224:
 1918 0002 EF 0A                   		mov.L	r0, r10
 1919                             	.LCFI225:
 1920                             		.loc 1 403 1
 1921 0004 03                      		nop
 1922 0005 7E BA                   		pop	r10
 1923 0007 7F 95                   		rte
 1924                             	.LFE112:
 1926                             		.section	.text.INT_Excep_PERIB_INTB141,"ax",@progbits
 1927                             		.global	_INT_Excep_PERIB_INTB141
 1929                             	_INT_Excep_PERIB_INTB141:
 1930                             	.LFB113:
 404:../generate/inthandler.c **** 
 405:../generate/inthandler.c **** //;0x0234 INTB141
 406:../generate/inthandler.c **** void INT_Excep_PERIB_INTB141(void){ }
 1931                             		.loc 1 406 35
 1932                             		; Note: Interrupt Handler
 1933 0000 7E AA                   		push.l	r10
 1934                             	.LCFI226:
 1935 0002 EF 0A                   		mov.L	r0, r10
 1936                             	.LCFI227:
 1937                             		.loc 1 406 1
 1938 0004 03                      		nop
 1939 0005 7E BA                   		pop	r10
 1940 0007 7F 95                   		rte
 1941                             	.LFE113:
 1943                             		.section	.text.INT_Excep_PERIB_INTB142,"ax",@progbits
 1944                             		.global	_INT_Excep_PERIB_INTB142
 1946                             	_INT_Excep_PERIB_INTB142:
 1947                             	.LFB114:
 407:../generate/inthandler.c **** 
 408:../generate/inthandler.c **** //;0x0238 INTB142
 409:../generate/inthandler.c **** void INT_Excep_PERIB_INTB142(void){ }
 1948                             		.loc 1 409 35
 1949                             		; Note: Interrupt Handler
 1950 0000 7E AA                   		push.l	r10
 1951                             	.LCFI228:
 1952 0002 EF 0A                   		mov.L	r0, r10
 1953                             	.LCFI229:
 1954                             		.loc 1 409 1
 1955 0004 03                      		nop
 1956 0005 7E BA                   		pop	r10
 1957 0007 7F 95                   		rte
 1958                             	.LFE114:
 1960                             		.section	.text.INT_Excep_PERIB_INTB143,"ax",@progbits
 1961                             		.global	_INT_Excep_PERIB_INTB143
 1963                             	_INT_Excep_PERIB_INTB143:
 1964                             	.LFB115:
 410:../generate/inthandler.c **** 
 411:../generate/inthandler.c **** //;0x023C INTB143
 412:../generate/inthandler.c **** void INT_Excep_PERIB_INTB143(void){ }
 1965                             		.loc 1 412 35
 1966                             		; Note: Interrupt Handler
 1967 0000 7E AA                   		push.l	r10
 1968                             	.LCFI230:
 1969 0002 EF 0A                   		mov.L	r0, r10
 1970                             	.LCFI231:
 1971                             		.loc 1 412 1
 1972 0004 03                      		nop
 1973 0005 7E BA                   		pop	r10
 1974 0007 7F 95                   		rte
 1975                             	.LFE115:
 1977                             		.section	.text.INT_Excep_PERIB_INTB144,"ax",@progbits
 1978                             		.global	_INT_Excep_PERIB_INTB144
 1980                             	_INT_Excep_PERIB_INTB144:
 1981                             	.LFB116:
 413:../generate/inthandler.c **** 
 414:../generate/inthandler.c **** //;0x0240 INTB144
 415:../generate/inthandler.c **** void INT_Excep_PERIB_INTB144(void){ }
 1982                             		.loc 1 415 35
 1983                             		; Note: Interrupt Handler
 1984 0000 7E AA                   		push.l	r10
 1985                             	.LCFI232:
 1986 0002 EF 0A                   		mov.L	r0, r10
 1987                             	.LCFI233:
 1988                             		.loc 1 415 1
 1989 0004 03                      		nop
 1990 0005 7E BA                   		pop	r10
 1991 0007 7F 95                   		rte
 1992                             	.LFE116:
 1994                             		.section	.text.INT_Excep_PERIB_INTB145,"ax",@progbits
 1995                             		.global	_INT_Excep_PERIB_INTB145
 1997                             	_INT_Excep_PERIB_INTB145:
 1998                             	.LFB117:
 416:../generate/inthandler.c **** 
 417:../generate/inthandler.c **** //;0x0244 INTB145
 418:../generate/inthandler.c **** void INT_Excep_PERIB_INTB145(void){ }
 1999                             		.loc 1 418 35
 2000                             		; Note: Interrupt Handler
 2001 0000 7E AA                   		push.l	r10
 2002                             	.LCFI234:
 2003 0002 EF 0A                   		mov.L	r0, r10
 2004                             	.LCFI235:
 2005                             		.loc 1 418 1
 2006 0004 03                      		nop
 2007 0005 7E BA                   		pop	r10
 2008 0007 7F 95                   		rte
 2009                             	.LFE117:
 2011                             		.section	.text.INT_Excep_PERIB_INTB146,"ax",@progbits
 2012                             		.global	_INT_Excep_PERIB_INTB146
 2014                             	_INT_Excep_PERIB_INTB146:
 2015                             	.LFB118:
 419:../generate/inthandler.c **** 
 420:../generate/inthandler.c **** //;0x0248 INTB146
 421:../generate/inthandler.c **** void INT_Excep_PERIB_INTB146(void){ }
 2016                             		.loc 1 421 35
 2017                             		; Note: Interrupt Handler
 2018 0000 7E AA                   		push.l	r10
 2019                             	.LCFI236:
 2020 0002 EF 0A                   		mov.L	r0, r10
 2021                             	.LCFI237:
 2022                             		.loc 1 421 1
 2023 0004 03                      		nop
 2024 0005 7E BA                   		pop	r10
 2025 0007 7F 95                   		rte
 2026                             	.LFE118:
 2028                             		.section	.text.INT_Excep_PERIB_INTB147,"ax",@progbits
 2029                             		.global	_INT_Excep_PERIB_INTB147
 2031                             	_INT_Excep_PERIB_INTB147:
 2032                             	.LFB119:
 422:../generate/inthandler.c **** 
 423:../generate/inthandler.c **** //;0x024C INTB147
 424:../generate/inthandler.c **** void INT_Excep_PERIB_INTB147(void){ }
 2033                             		.loc 1 424 35
 2034                             		; Note: Interrupt Handler
 2035 0000 7E AA                   		push.l	r10
 2036                             	.LCFI238:
 2037 0002 EF 0A                   		mov.L	r0, r10
 2038                             	.LCFI239:
 2039                             		.loc 1 424 1
 2040 0004 03                      		nop
 2041 0005 7E BA                   		pop	r10
 2042 0007 7F 95                   		rte
 2043                             	.LFE119:
 2045                             		.section	.text.INT_Excep_PERIB_INTB148,"ax",@progbits
 2046                             		.global	_INT_Excep_PERIB_INTB148
 2048                             	_INT_Excep_PERIB_INTB148:
 2049                             	.LFB120:
 425:../generate/inthandler.c **** 
 426:../generate/inthandler.c **** //;0x0250 INTB148
 427:../generate/inthandler.c **** void INT_Excep_PERIB_INTB148(void){ }
 2050                             		.loc 1 427 35
 2051                             		; Note: Interrupt Handler
 2052 0000 7E AA                   		push.l	r10
 2053                             	.LCFI240:
 2054 0002 EF 0A                   		mov.L	r0, r10
 2055                             	.LCFI241:
 2056                             		.loc 1 427 1
 2057 0004 03                      		nop
 2058 0005 7E BA                   		pop	r10
 2059 0007 7F 95                   		rte
 2060                             	.LFE120:
 2062                             		.section	.text.INT_Excep_PERIB_INTB149,"ax",@progbits
 2063                             		.global	_INT_Excep_PERIB_INTB149
 2065                             	_INT_Excep_PERIB_INTB149:
 2066                             	.LFB121:
 428:../generate/inthandler.c **** 
 429:../generate/inthandler.c **** //;0x02540 INTB149
 430:../generate/inthandler.c **** void INT_Excep_PERIB_INTB149(void){ }
 2067                             		.loc 1 430 35
 2068                             		; Note: Interrupt Handler
 2069 0000 7E AA                   		push.l	r10
 2070                             	.LCFI242:
 2071 0002 EF 0A                   		mov.L	r0, r10
 2072                             	.LCFI243:
 2073                             		.loc 1 430 1
 2074 0004 03                      		nop
 2075 0005 7E BA                   		pop	r10
 2076 0007 7F 95                   		rte
 2077                             	.LFE121:
 2079                             		.section	.text.INT_Excep_PERIB_INTB150,"ax",@progbits
 2080                             		.global	_INT_Excep_PERIB_INTB150
 2082                             	_INT_Excep_PERIB_INTB150:
 2083                             	.LFB122:
 431:../generate/inthandler.c **** 
 432:../generate/inthandler.c **** //;0x0258 INTB150
 433:../generate/inthandler.c **** void INT_Excep_PERIB_INTB150(void){ }
 2084                             		.loc 1 433 35
 2085                             		; Note: Interrupt Handler
 2086 0000 7E AA                   		push.l	r10
 2087                             	.LCFI244:
 2088 0002 EF 0A                   		mov.L	r0, r10
 2089                             	.LCFI245:
 2090                             		.loc 1 433 1
 2091 0004 03                      		nop
 2092 0005 7E BA                   		pop	r10
 2093 0007 7F 95                   		rte
 2094                             	.LFE122:
 2096                             		.section	.text.INT_Excep_PERIB_INTB151,"ax",@progbits
 2097                             		.global	_INT_Excep_PERIB_INTB151
 2099                             	_INT_Excep_PERIB_INTB151:
 2100                             	.LFB123:
 434:../generate/inthandler.c **** 
 435:../generate/inthandler.c **** //;0x025C INTB151
 436:../generate/inthandler.c **** void INT_Excep_PERIB_INTB151(void){ }
 2101                             		.loc 1 436 35
 2102                             		; Note: Interrupt Handler
 2103 0000 7E AA                   		push.l	r10
 2104                             	.LCFI246:
 2105 0002 EF 0A                   		mov.L	r0, r10
 2106                             	.LCFI247:
 2107                             		.loc 1 436 1
 2108 0004 03                      		nop
 2109 0005 7E BA                   		pop	r10
 2110 0007 7F 95                   		rte
 2111                             	.LFE123:
 2113                             		.section	.text.INT_Excep_PERIB_INTB152,"ax",@progbits
 2114                             		.global	_INT_Excep_PERIB_INTB152
 2116                             	_INT_Excep_PERIB_INTB152:
 2117                             	.LFB124:
 437:../generate/inthandler.c **** 
 438:../generate/inthandler.c **** //;0x0260 INTB152
 439:../generate/inthandler.c **** void INT_Excep_PERIB_INTB152(void){ }
 2118                             		.loc 1 439 35
 2119                             		; Note: Interrupt Handler
 2120 0000 7E AA                   		push.l	r10
 2121                             	.LCFI248:
 2122 0002 EF 0A                   		mov.L	r0, r10
 2123                             	.LCFI249:
 2124                             		.loc 1 439 1
 2125 0004 03                      		nop
 2126 0005 7E BA                   		pop	r10
 2127 0007 7F 95                   		rte
 2128                             	.LFE124:
 2130                             		.section	.text.INT_Excep_PERIB_INTB153,"ax",@progbits
 2131                             		.global	_INT_Excep_PERIB_INTB153
 2133                             	_INT_Excep_PERIB_INTB153:
 2134                             	.LFB125:
 440:../generate/inthandler.c **** 
 441:../generate/inthandler.c **** //;0x0264 INTB153
 442:../generate/inthandler.c **** void INT_Excep_PERIB_INTB153(void){ }
 2135                             		.loc 1 442 35
 2136                             		; Note: Interrupt Handler
 2137 0000 7E AA                   		push.l	r10
 2138                             	.LCFI250:
 2139 0002 EF 0A                   		mov.L	r0, r10
 2140                             	.LCFI251:
 2141                             		.loc 1 442 1
 2142 0004 03                      		nop
 2143 0005 7E BA                   		pop	r10
 2144 0007 7F 95                   		rte
 2145                             	.LFE125:
 2147                             		.section	.text.INT_Excep_PERIB_INTB154,"ax",@progbits
 2148                             		.global	_INT_Excep_PERIB_INTB154
 2150                             	_INT_Excep_PERIB_INTB154:
 2151                             	.LFB126:
 443:../generate/inthandler.c **** 
 444:../generate/inthandler.c **** //;0x0268 INTB154
 445:../generate/inthandler.c **** void INT_Excep_PERIB_INTB154(void){ }
 2152                             		.loc 1 445 35
 2153                             		; Note: Interrupt Handler
 2154 0000 7E AA                   		push.l	r10
 2155                             	.LCFI252:
 2156 0002 EF 0A                   		mov.L	r0, r10
 2157                             	.LCFI253:
 2158                             		.loc 1 445 1
 2159 0004 03                      		nop
 2160 0005 7E BA                   		pop	r10
 2161 0007 7F 95                   		rte
 2162                             	.LFE126:
 2164                             		.section	.text.INT_Excep_PERIB_INTB155,"ax",@progbits
 2165                             		.global	_INT_Excep_PERIB_INTB155
 2167                             	_INT_Excep_PERIB_INTB155:
 2168                             	.LFB127:
 446:../generate/inthandler.c **** 
 447:../generate/inthandler.c **** //;0x026C INTB155
 448:../generate/inthandler.c **** void INT_Excep_PERIB_INTB155(void){ }
 2169                             		.loc 1 448 35
 2170                             		; Note: Interrupt Handler
 2171 0000 7E AA                   		push.l	r10
 2172                             	.LCFI254:
 2173 0002 EF 0A                   		mov.L	r0, r10
 2174                             	.LCFI255:
 2175                             		.loc 1 448 1
 2176 0004 03                      		nop
 2177 0005 7E BA                   		pop	r10
 2178 0007 7F 95                   		rte
 2179                             	.LFE127:
 2181                             		.section	.text.INT_Excep_PERIB_INTB156,"ax",@progbits
 2182                             		.global	_INT_Excep_PERIB_INTB156
 2184                             	_INT_Excep_PERIB_INTB156:
 2185                             	.LFB128:
 449:../generate/inthandler.c **** 
 450:../generate/inthandler.c **** //;0x0270 INTB156
 451:../generate/inthandler.c **** void INT_Excep_PERIB_INTB156(void){ }
 2186                             		.loc 1 451 35
 2187                             		; Note: Interrupt Handler
 2188 0000 7E AA                   		push.l	r10
 2189                             	.LCFI256:
 2190 0002 EF 0A                   		mov.L	r0, r10
 2191                             	.LCFI257:
 2192                             		.loc 1 451 1
 2193 0004 03                      		nop
 2194 0005 7E BA                   		pop	r10
 2195 0007 7F 95                   		rte
 2196                             	.LFE128:
 2198                             		.section	.text.INT_Excep_PERIB_INTB157,"ax",@progbits
 2199                             		.global	_INT_Excep_PERIB_INTB157
 2201                             	_INT_Excep_PERIB_INTB157:
 2202                             	.LFB129:
 452:../generate/inthandler.c **** 
 453:../generate/inthandler.c **** //;0x0274 INTB157
 454:../generate/inthandler.c **** void INT_Excep_PERIB_INTB157(void){ }
 2203                             		.loc 1 454 35
 2204                             		; Note: Interrupt Handler
 2205 0000 7E AA                   		push.l	r10
 2206                             	.LCFI258:
 2207 0002 EF 0A                   		mov.L	r0, r10
 2208                             	.LCFI259:
 2209                             		.loc 1 454 1
 2210 0004 03                      		nop
 2211 0005 7E BA                   		pop	r10
 2212 0007 7F 95                   		rte
 2213                             	.LFE129:
 2215                             		.section	.text.INT_Excep_PERIB_INTB158,"ax",@progbits
 2216                             		.global	_INT_Excep_PERIB_INTB158
 2218                             	_INT_Excep_PERIB_INTB158:
 2219                             	.LFB130:
 455:../generate/inthandler.c **** 
 456:../generate/inthandler.c **** //;0x0278 INTB158
 457:../generate/inthandler.c **** void INT_Excep_PERIB_INTB158(void){ }
 2220                             		.loc 1 457 35
 2221                             		; Note: Interrupt Handler
 2222 0000 7E AA                   		push.l	r10
 2223                             	.LCFI260:
 2224 0002 EF 0A                   		mov.L	r0, r10
 2225                             	.LCFI261:
 2226                             		.loc 1 457 1
 2227 0004 03                      		nop
 2228 0005 7E BA                   		pop	r10
 2229 0007 7F 95                   		rte
 2230                             	.LFE130:
 2232                             		.section	.text.INT_Excep_PERIB_INTB159,"ax",@progbits
 2233                             		.global	_INT_Excep_PERIB_INTB159
 2235                             	_INT_Excep_PERIB_INTB159:
 2236                             	.LFB131:
 458:../generate/inthandler.c **** 
 459:../generate/inthandler.c **** //;0x027C INTB159
 460:../generate/inthandler.c **** void INT_Excep_PERIB_INTB159(void){ }
 2237                             		.loc 1 460 35
 2238                             		; Note: Interrupt Handler
 2239 0000 7E AA                   		push.l	r10
 2240                             	.LCFI262:
 2241 0002 EF 0A                   		mov.L	r0, r10
 2242                             	.LCFI263:
 2243                             		.loc 1 460 1
 2244 0004 03                      		nop
 2245 0005 7E BA                   		pop	r10
 2246 0007 7F 95                   		rte
 2247                             	.LFE131:
 2249                             		.section	.text.INT_Excep_PERIB_INTB160,"ax",@progbits
 2250                             		.global	_INT_Excep_PERIB_INTB160
 2252                             	_INT_Excep_PERIB_INTB160:
 2253                             	.LFB132:
 461:../generate/inthandler.c **** 
 462:../generate/inthandler.c **** //;0x0280 INTB160
 463:../generate/inthandler.c **** void INT_Excep_PERIB_INTB160(void){ }
 2254                             		.loc 1 463 35
 2255                             		; Note: Interrupt Handler
 2256 0000 7E AA                   		push.l	r10
 2257                             	.LCFI264:
 2258 0002 EF 0A                   		mov.L	r0, r10
 2259                             	.LCFI265:
 2260                             		.loc 1 463 1
 2261 0004 03                      		nop
 2262 0005 7E BA                   		pop	r10
 2263 0007 7F 95                   		rte
 2264                             	.LFE132:
 2266                             		.section	.text.INT_Excep_PERIB_INTB161,"ax",@progbits
 2267                             		.global	_INT_Excep_PERIB_INTB161
 2269                             	_INT_Excep_PERIB_INTB161:
 2270                             	.LFB133:
 464:../generate/inthandler.c **** 
 465:../generate/inthandler.c **** //;0x0284 INTB161
 466:../generate/inthandler.c **** void INT_Excep_PERIB_INTB161(void){ }
 2271                             		.loc 1 466 35
 2272                             		; Note: Interrupt Handler
 2273 0000 7E AA                   		push.l	r10
 2274                             	.LCFI266:
 2275 0002 EF 0A                   		mov.L	r0, r10
 2276                             	.LCFI267:
 2277                             		.loc 1 466 1
 2278 0004 03                      		nop
 2279 0005 7E BA                   		pop	r10
 2280 0007 7F 95                   		rte
 2281                             	.LFE133:
 2283                             		.section	.text.INT_Excep_PERIB_INTB162,"ax",@progbits
 2284                             		.global	_INT_Excep_PERIB_INTB162
 2286                             	_INT_Excep_PERIB_INTB162:
 2287                             	.LFB134:
 467:../generate/inthandler.c **** 
 468:../generate/inthandler.c **** //;0x0288 INTB162
 469:../generate/inthandler.c **** void INT_Excep_PERIB_INTB162(void){ }
 2288                             		.loc 1 469 35
 2289                             		; Note: Interrupt Handler
 2290 0000 7E AA                   		push.l	r10
 2291                             	.LCFI268:
 2292 0002 EF 0A                   		mov.L	r0, r10
 2293                             	.LCFI269:
 2294                             		.loc 1 469 1
 2295 0004 03                      		nop
 2296 0005 7E BA                   		pop	r10
 2297 0007 7F 95                   		rte
 2298                             	.LFE134:
 2300                             		.section	.text.INT_Excep_PERIB_INTB163,"ax",@progbits
 2301                             		.global	_INT_Excep_PERIB_INTB163
 2303                             	_INT_Excep_PERIB_INTB163:
 2304                             	.LFB135:
 470:../generate/inthandler.c **** 
 471:../generate/inthandler.c **** //;0x028C INTB163
 472:../generate/inthandler.c **** void INT_Excep_PERIB_INTB163(void){ }
 2305                             		.loc 1 472 35
 2306                             		; Note: Interrupt Handler
 2307 0000 7E AA                   		push.l	r10
 2308                             	.LCFI270:
 2309 0002 EF 0A                   		mov.L	r0, r10
 2310                             	.LCFI271:
 2311                             		.loc 1 472 1
 2312 0004 03                      		nop
 2313 0005 7E BA                   		pop	r10
 2314 0007 7F 95                   		rte
 2315                             	.LFE135:
 2317                             		.section	.text.INT_Excep_PERIB_INTB164,"ax",@progbits
 2318                             		.global	_INT_Excep_PERIB_INTB164
 2320                             	_INT_Excep_PERIB_INTB164:
 2321                             	.LFB136:
 473:../generate/inthandler.c **** 
 474:../generate/inthandler.c **** //;0x0290 INTB164
 475:../generate/inthandler.c **** void INT_Excep_PERIB_INTB164(void){ }
 2322                             		.loc 1 475 35
 2323                             		; Note: Interrupt Handler
 2324 0000 7E AA                   		push.l	r10
 2325                             	.LCFI272:
 2326 0002 EF 0A                   		mov.L	r0, r10
 2327                             	.LCFI273:
 2328                             		.loc 1 475 1
 2329 0004 03                      		nop
 2330 0005 7E BA                   		pop	r10
 2331 0007 7F 95                   		rte
 2332                             	.LFE136:
 2334                             		.section	.text.INT_Excep_PERIB_INTB165,"ax",@progbits
 2335                             		.global	_INT_Excep_PERIB_INTB165
 2337                             	_INT_Excep_PERIB_INTB165:
 2338                             	.LFB137:
 476:../generate/inthandler.c **** 
 477:../generate/inthandler.c **** //;0x0294 PERIB INTB165
 478:../generate/inthandler.c **** void INT_Excep_PERIB_INTB165(void){ }
 2339                             		.loc 1 478 35
 2340                             		; Note: Interrupt Handler
 2341 0000 7E AA                   		push.l	r10
 2342                             	.LCFI274:
 2343 0002 EF 0A                   		mov.L	r0, r10
 2344                             	.LCFI275:
 2345                             		.loc 1 478 1
 2346 0004 03                      		nop
 2347 0005 7E BA                   		pop	r10
 2348 0007 7F 95                   		rte
 2349                             	.LFE137:
 2351                             		.section	.text.INT_Excep_PERIB_INTB166,"ax",@progbits
 2352                             		.global	_INT_Excep_PERIB_INTB166
 2354                             	_INT_Excep_PERIB_INTB166:
 2355                             	.LFB138:
 479:../generate/inthandler.c **** 
 480:../generate/inthandler.c **** //;0x0298 PERIB INTB166
 481:../generate/inthandler.c **** void INT_Excep_PERIB_INTB166(void){ }
 2356                             		.loc 1 481 35
 2357                             		; Note: Interrupt Handler
 2358 0000 7E AA                   		push.l	r10
 2359                             	.LCFI276:
 2360 0002 EF 0A                   		mov.L	r0, r10
 2361                             	.LCFI277:
 2362                             		.loc 1 481 1
 2363 0004 03                      		nop
 2364 0005 7E BA                   		pop	r10
 2365 0007 7F 95                   		rte
 2366                             	.LFE138:
 2368                             		.section	.text.INT_Excep_PERIB_INTB167,"ax",@progbits
 2369                             		.global	_INT_Excep_PERIB_INTB167
 2371                             	_INT_Excep_PERIB_INTB167:
 2372                             	.LFB139:
 482:../generate/inthandler.c **** 
 483:../generate/inthandler.c **** //;0x029C PERIB INTB167
 484:../generate/inthandler.c **** void INT_Excep_PERIB_INTB167(void){ }
 2373                             		.loc 1 484 35
 2374                             		; Note: Interrupt Handler
 2375 0000 7E AA                   		push.l	r10
 2376                             	.LCFI278:
 2377 0002 EF 0A                   		mov.L	r0, r10
 2378                             	.LCFI279:
 2379                             		.loc 1 484 1
 2380 0004 03                      		nop
 2381 0005 7E BA                   		pop	r10
 2382 0007 7F 95                   		rte
 2383                             	.LFE139:
 2385                             		.section	.text.INT_Excep_PERIB_INTB168,"ax",@progbits
 2386                             		.global	_INT_Excep_PERIB_INTB168
 2388                             	_INT_Excep_PERIB_INTB168:
 2389                             	.LFB140:
 485:../generate/inthandler.c **** 
 486:../generate/inthandler.c **** //;0x02A0 PERIB INTB168
 487:../generate/inthandler.c **** void INT_Excep_PERIB_INTB168(void){ }
 2390                             		.loc 1 487 35
 2391                             		; Note: Interrupt Handler
 2392 0000 7E AA                   		push.l	r10
 2393                             	.LCFI280:
 2394 0002 EF 0A                   		mov.L	r0, r10
 2395                             	.LCFI281:
 2396                             		.loc 1 487 1
 2397 0004 03                      		nop
 2398 0005 7E BA                   		pop	r10
 2399 0007 7F 95                   		rte
 2400                             	.LFE140:
 2402                             		.section	.text.INT_Excep_PERIB_INTB169,"ax",@progbits
 2403                             		.global	_INT_Excep_PERIB_INTB169
 2405                             	_INT_Excep_PERIB_INTB169:
 2406                             	.LFB141:
 488:../generate/inthandler.c **** 
 489:../generate/inthandler.c **** //;0x02A4 PERIB INTB169
 490:../generate/inthandler.c **** void INT_Excep_PERIB_INTB169(void){ }
 2407                             		.loc 1 490 35
 2408                             		; Note: Interrupt Handler
 2409 0000 7E AA                   		push.l	r10
 2410                             	.LCFI282:
 2411 0002 EF 0A                   		mov.L	r0, r10
 2412                             	.LCFI283:
 2413                             		.loc 1 490 1
 2414 0004 03                      		nop
 2415 0005 7E BA                   		pop	r10
 2416 0007 7F 95                   		rte
 2417                             	.LFE141:
 2419                             		.section	.text.INT_Excep_PERIB_INTB170,"ax",@progbits
 2420                             		.global	_INT_Excep_PERIB_INTB170
 2422                             	_INT_Excep_PERIB_INTB170:
 2423                             	.LFB142:
 491:../generate/inthandler.c **** 
 492:../generate/inthandler.c **** //;0x02A8 PERIB INTB170
 493:../generate/inthandler.c **** void INT_Excep_PERIB_INTB170(void){ }
 2424                             		.loc 1 493 35
 2425                             		; Note: Interrupt Handler
 2426 0000 7E AA                   		push.l	r10
 2427                             	.LCFI284:
 2428 0002 EF 0A                   		mov.L	r0, r10
 2429                             	.LCFI285:
 2430                             		.loc 1 493 1
 2431 0004 03                      		nop
 2432 0005 7E BA                   		pop	r10
 2433 0007 7F 95                   		rte
 2434                             	.LFE142:
 2436                             		.section	.text.INT_Excep_PERIB_INTB171,"ax",@progbits
 2437                             		.global	_INT_Excep_PERIB_INTB171
 2439                             	_INT_Excep_PERIB_INTB171:
 2440                             	.LFB143:
 494:../generate/inthandler.c **** 
 495:../generate/inthandler.c **** //;0x02AC PERIB INTB171
 496:../generate/inthandler.c **** void INT_Excep_PERIB_INTB171(void){ }
 2441                             		.loc 1 496 35
 2442                             		; Note: Interrupt Handler
 2443 0000 7E AA                   		push.l	r10
 2444                             	.LCFI286:
 2445 0002 EF 0A                   		mov.L	r0, r10
 2446                             	.LCFI287:
 2447                             		.loc 1 496 1
 2448 0004 03                      		nop
 2449 0005 7E BA                   		pop	r10
 2450 0007 7F 95                   		rte
 2451                             	.LFE143:
 2453                             		.section	.text.INT_Excep_PERIB_INTB172,"ax",@progbits
 2454                             		.global	_INT_Excep_PERIB_INTB172
 2456                             	_INT_Excep_PERIB_INTB172:
 2457                             	.LFB144:
 497:../generate/inthandler.c **** 
 498:../generate/inthandler.c **** //;0x02B0 PERIB INTB172
 499:../generate/inthandler.c **** void INT_Excep_PERIB_INTB172(void){ }
 2458                             		.loc 1 499 35
 2459                             		; Note: Interrupt Handler
 2460 0000 7E AA                   		push.l	r10
 2461                             	.LCFI288:
 2462 0002 EF 0A                   		mov.L	r0, r10
 2463                             	.LCFI289:
 2464                             		.loc 1 499 1
 2465 0004 03                      		nop
 2466 0005 7E BA                   		pop	r10
 2467 0007 7F 95                   		rte
 2468                             	.LFE144:
 2470                             		.section	.text.INT_Excep_PERIB_INTB173,"ax",@progbits
 2471                             		.global	_INT_Excep_PERIB_INTB173
 2473                             	_INT_Excep_PERIB_INTB173:
 2474                             	.LFB145:
 500:../generate/inthandler.c **** 
 501:../generate/inthandler.c **** //;0x02B4 PERIB INTB173
 502:../generate/inthandler.c **** void INT_Excep_PERIB_INTB173(void){ }
 2475                             		.loc 1 502 35
 2476                             		; Note: Interrupt Handler
 2477 0000 7E AA                   		push.l	r10
 2478                             	.LCFI290:
 2479 0002 EF 0A                   		mov.L	r0, r10
 2480                             	.LCFI291:
 2481                             		.loc 1 502 1
 2482 0004 03                      		nop
 2483 0005 7E BA                   		pop	r10
 2484 0007 7F 95                   		rte
 2485                             	.LFE145:
 2487                             		.section	.text.INT_Excep_PERIB_INTB174,"ax",@progbits
 2488                             		.global	_INT_Excep_PERIB_INTB174
 2490                             	_INT_Excep_PERIB_INTB174:
 2491                             	.LFB146:
 503:../generate/inthandler.c **** 
 504:../generate/inthandler.c **** //;0x02B8 PERIB INTB174
 505:../generate/inthandler.c **** void INT_Excep_PERIB_INTB174(void){ }
 2492                             		.loc 1 505 35
 2493                             		; Note: Interrupt Handler
 2494 0000 7E AA                   		push.l	r10
 2495                             	.LCFI292:
 2496 0002 EF 0A                   		mov.L	r0, r10
 2497                             	.LCFI293:
 2498                             		.loc 1 505 1
 2499 0004 03                      		nop
 2500 0005 7E BA                   		pop	r10
 2501 0007 7F 95                   		rte
 2502                             	.LFE146:
 2504                             		.section	.text.INT_Excep_PERIB_INTB175,"ax",@progbits
 2505                             		.global	_INT_Excep_PERIB_INTB175
 2507                             	_INT_Excep_PERIB_INTB175:
 2508                             	.LFB147:
 506:../generate/inthandler.c **** 
 507:../generate/inthandler.c **** //;0x02BC PERIB INTB175
 508:../generate/inthandler.c **** void INT_Excep_PERIB_INTB175(void){ }
 2509                             		.loc 1 508 35
 2510                             		; Note: Interrupt Handler
 2511 0000 7E AA                   		push.l	r10
 2512                             	.LCFI294:
 2513 0002 EF 0A                   		mov.L	r0, r10
 2514                             	.LCFI295:
 2515                             		.loc 1 508 1
 2516 0004 03                      		nop
 2517 0005 7E BA                   		pop	r10
 2518 0007 7F 95                   		rte
 2519                             	.LFE147:
 2521                             		.section	.text.INT_Excep_PERIB_INTB176,"ax",@progbits
 2522                             		.global	_INT_Excep_PERIB_INTB176
 2524                             	_INT_Excep_PERIB_INTB176:
 2525                             	.LFB148:
 509:../generate/inthandler.c **** 
 510:../generate/inthandler.c **** //;0x02C0 PERIB INTB176
 511:../generate/inthandler.c **** void INT_Excep_PERIB_INTB176(void){ }
 2526                             		.loc 1 511 35
 2527                             		; Note: Interrupt Handler
 2528 0000 7E AA                   		push.l	r10
 2529                             	.LCFI296:
 2530 0002 EF 0A                   		mov.L	r0, r10
 2531                             	.LCFI297:
 2532                             		.loc 1 511 1
 2533 0004 03                      		nop
 2534 0005 7E BA                   		pop	r10
 2535 0007 7F 95                   		rte
 2536                             	.LFE148:
 2538                             		.section	.text.INT_Excep_PERIB_INTB177,"ax",@progbits
 2539                             		.global	_INT_Excep_PERIB_INTB177
 2541                             	_INT_Excep_PERIB_INTB177:
 2542                             	.LFB149:
 512:../generate/inthandler.c **** 
 513:../generate/inthandler.c **** //;0x02C4 PERIB INTB177
 514:../generate/inthandler.c **** void INT_Excep_PERIB_INTB177(void){ }
 2543                             		.loc 1 514 35
 2544                             		; Note: Interrupt Handler
 2545 0000 7E AA                   		push.l	r10
 2546                             	.LCFI298:
 2547 0002 EF 0A                   		mov.L	r0, r10
 2548                             	.LCFI299:
 2549                             		.loc 1 514 1
 2550 0004 03                      		nop
 2551 0005 7E BA                   		pop	r10
 2552 0007 7F 95                   		rte
 2553                             	.LFE149:
 2555                             		.section	.text.INT_Excep_PERIB_INTB178,"ax",@progbits
 2556                             		.global	_INT_Excep_PERIB_INTB178
 2558                             	_INT_Excep_PERIB_INTB178:
 2559                             	.LFB150:
 515:../generate/inthandler.c **** 
 516:../generate/inthandler.c **** //;0x02C8 PERIB INTB178
 517:../generate/inthandler.c **** void INT_Excep_PERIB_INTB178(void){ }
 2560                             		.loc 1 517 35
 2561                             		; Note: Interrupt Handler
 2562 0000 7E AA                   		push.l	r10
 2563                             	.LCFI300:
 2564 0002 EF 0A                   		mov.L	r0, r10
 2565                             	.LCFI301:
 2566                             		.loc 1 517 1
 2567 0004 03                      		nop
 2568 0005 7E BA                   		pop	r10
 2569 0007 7F 95                   		rte
 2570                             	.LFE150:
 2572                             		.section	.text.INT_Excep_PERIB_INTB179,"ax",@progbits
 2573                             		.global	_INT_Excep_PERIB_INTB179
 2575                             	_INT_Excep_PERIB_INTB179:
 2576                             	.LFB151:
 518:../generate/inthandler.c **** 
 519:../generate/inthandler.c **** //;0x02CC PERIB INTB179
 520:../generate/inthandler.c **** void INT_Excep_PERIB_INTB179(void){ }
 2577                             		.loc 1 520 35
 2578                             		; Note: Interrupt Handler
 2579 0000 7E AA                   		push.l	r10
 2580                             	.LCFI302:
 2581 0002 EF 0A                   		mov.L	r0, r10
 2582                             	.LCFI303:
 2583                             		.loc 1 520 1
 2584 0004 03                      		nop
 2585 0005 7E BA                   		pop	r10
 2586 0007 7F 95                   		rte
 2587                             	.LFE151:
 2589                             		.section	.text.INT_Excep_PERIB_INTB180,"ax",@progbits
 2590                             		.global	_INT_Excep_PERIB_INTB180
 2592                             	_INT_Excep_PERIB_INTB180:
 2593                             	.LFB152:
 521:../generate/inthandler.c **** 
 522:../generate/inthandler.c **** //;0x02D0 PERIB INTB180
 523:../generate/inthandler.c **** void INT_Excep_PERIB_INTB180(void){ }
 2594                             		.loc 1 523 35
 2595                             		; Note: Interrupt Handler
 2596 0000 7E AA                   		push.l	r10
 2597                             	.LCFI304:
 2598 0002 EF 0A                   		mov.L	r0, r10
 2599                             	.LCFI305:
 2600                             		.loc 1 523 1
 2601 0004 03                      		nop
 2602 0005 7E BA                   		pop	r10
 2603 0007 7F 95                   		rte
 2604                             	.LFE152:
 2606                             		.section	.text.INT_Excep_PERIB_INTB181,"ax",@progbits
 2607                             		.global	_INT_Excep_PERIB_INTB181
 2609                             	_INT_Excep_PERIB_INTB181:
 2610                             	.LFB153:
 524:../generate/inthandler.c **** 
 525:../generate/inthandler.c **** //;0x02D4 PERIB INTB181
 526:../generate/inthandler.c **** void INT_Excep_PERIB_INTB181(void){ }
 2611                             		.loc 1 526 35
 2612                             		; Note: Interrupt Handler
 2613 0000 7E AA                   		push.l	r10
 2614                             	.LCFI306:
 2615 0002 EF 0A                   		mov.L	r0, r10
 2616                             	.LCFI307:
 2617                             		.loc 1 526 1
 2618 0004 03                      		nop
 2619 0005 7E BA                   		pop	r10
 2620 0007 7F 95                   		rte
 2621                             	.LFE153:
 2623                             		.section	.text.INT_Excep_PERIB_INTB182,"ax",@progbits
 2624                             		.global	_INT_Excep_PERIB_INTB182
 2626                             	_INT_Excep_PERIB_INTB182:
 2627                             	.LFB154:
 527:../generate/inthandler.c **** 
 528:../generate/inthandler.c **** //;0x02D8 PERIB INTB182
 529:../generate/inthandler.c **** void INT_Excep_PERIB_INTB182(void){ }
 2628                             		.loc 1 529 35
 2629                             		; Note: Interrupt Handler
 2630 0000 7E AA                   		push.l	r10
 2631                             	.LCFI308:
 2632 0002 EF 0A                   		mov.L	r0, r10
 2633                             	.LCFI309:
 2634                             		.loc 1 529 1
 2635 0004 03                      		nop
 2636 0005 7E BA                   		pop	r10
 2637 0007 7F 95                   		rte
 2638                             	.LFE154:
 2640                             		.section	.text.INT_Excep_PERIB_INTB183,"ax",@progbits
 2641                             		.global	_INT_Excep_PERIB_INTB183
 2643                             	_INT_Excep_PERIB_INTB183:
 2644                             	.LFB155:
 530:../generate/inthandler.c **** 
 531:../generate/inthandler.c **** //;0x02DC PERIB INTB183
 532:../generate/inthandler.c **** void INT_Excep_PERIB_INTB183(void){ }
 2645                             		.loc 1 532 35
 2646                             		; Note: Interrupt Handler
 2647 0000 7E AA                   		push.l	r10
 2648                             	.LCFI310:
 2649 0002 EF 0A                   		mov.L	r0, r10
 2650                             	.LCFI311:
 2651                             		.loc 1 532 1
 2652 0004 03                      		nop
 2653 0005 7E BA                   		pop	r10
 2654 0007 7F 95                   		rte
 2655                             	.LFE155:
 2657                             		.section	.text.INT_Excep_PERIB_INTB184,"ax",@progbits
 2658                             		.global	_INT_Excep_PERIB_INTB184
 2660                             	_INT_Excep_PERIB_INTB184:
 2661                             	.LFB156:
 533:../generate/inthandler.c **** 
 534:../generate/inthandler.c **** //;0x02E0 PERIB INTB184
 535:../generate/inthandler.c **** void INT_Excep_PERIB_INTB184(void){ }
 2662                             		.loc 1 535 35
 2663                             		; Note: Interrupt Handler
 2664 0000 7E AA                   		push.l	r10
 2665                             	.LCFI312:
 2666 0002 EF 0A                   		mov.L	r0, r10
 2667                             	.LCFI313:
 2668                             		.loc 1 535 1
 2669 0004 03                      		nop
 2670 0005 7E BA                   		pop	r10
 2671 0007 7F 95                   		rte
 2672                             	.LFE156:
 2674                             		.section	.text.INT_Excep_PERIB_INTB185,"ax",@progbits
 2675                             		.global	_INT_Excep_PERIB_INTB185
 2677                             	_INT_Excep_PERIB_INTB185:
 2678                             	.LFB157:
 536:../generate/inthandler.c **** 
 537:../generate/inthandler.c **** //;0x02E4 PERIB INTB185
 538:../generate/inthandler.c **** void INT_Excep_PERIB_INTB185(void){ }
 2679                             		.loc 1 538 35
 2680                             		; Note: Interrupt Handler
 2681 0000 7E AA                   		push.l	r10
 2682                             	.LCFI314:
 2683 0002 EF 0A                   		mov.L	r0, r10
 2684                             	.LCFI315:
 2685                             		.loc 1 538 1
 2686 0004 03                      		nop
 2687 0005 7E BA                   		pop	r10
 2688 0007 7F 95                   		rte
 2689                             	.LFE157:
 2691                             		.section	.text.INT_Excep_PERIB_INTB186,"ax",@progbits
 2692                             		.global	_INT_Excep_PERIB_INTB186
 2694                             	_INT_Excep_PERIB_INTB186:
 2695                             	.LFB158:
 539:../generate/inthandler.c **** 
 540:../generate/inthandler.c **** //;0x02E8 PERIB INTB186
 541:../generate/inthandler.c **** void INT_Excep_PERIB_INTB186(void){ }
 2696                             		.loc 1 541 35
 2697                             		; Note: Interrupt Handler
 2698 0000 7E AA                   		push.l	r10
 2699                             	.LCFI316:
 2700 0002 EF 0A                   		mov.L	r0, r10
 2701                             	.LCFI317:
 2702                             		.loc 1 541 1
 2703 0004 03                      		nop
 2704 0005 7E BA                   		pop	r10
 2705 0007 7F 95                   		rte
 2706                             	.LFE158:
 2708                             		.section	.text.INT_Excep_PERIB_INTB187,"ax",@progbits
 2709                             		.global	_INT_Excep_PERIB_INTB187
 2711                             	_INT_Excep_PERIB_INTB187:
 2712                             	.LFB159:
 542:../generate/inthandler.c **** 
 543:../generate/inthandler.c **** //;0x02EC PERIB INTB187
 544:../generate/inthandler.c **** void INT_Excep_PERIB_INTB187(void){ }
 2713                             		.loc 1 544 35
 2714                             		; Note: Interrupt Handler
 2715 0000 7E AA                   		push.l	r10
 2716                             	.LCFI318:
 2717 0002 EF 0A                   		mov.L	r0, r10
 2718                             	.LCFI319:
 2719                             		.loc 1 544 1
 2720 0004 03                      		nop
 2721 0005 7E BA                   		pop	r10
 2722 0007 7F 95                   		rte
 2723                             	.LFE159:
 2725                             		.section	.text.INT_Excep_PERIB_INTB188,"ax",@progbits
 2726                             		.global	_INT_Excep_PERIB_INTB188
 2728                             	_INT_Excep_PERIB_INTB188:
 2729                             	.LFB160:
 545:../generate/inthandler.c **** 
 546:../generate/inthandler.c **** //;0x02F0 PERIB INTB188
 547:../generate/inthandler.c **** void INT_Excep_PERIB_INTB188(void){ }
 2730                             		.loc 1 547 35
 2731                             		; Note: Interrupt Handler
 2732 0000 7E AA                   		push.l	r10
 2733                             	.LCFI320:
 2734 0002 EF 0A                   		mov.L	r0, r10
 2735                             	.LCFI321:
 2736                             		.loc 1 547 1
 2737 0004 03                      		nop
 2738 0005 7E BA                   		pop	r10
 2739 0007 7F 95                   		rte
 2740                             	.LFE160:
 2742                             		.section	.text.INT_Excep_PERIB_INTB189,"ax",@progbits
 2743                             		.global	_INT_Excep_PERIB_INTB189
 2745                             	_INT_Excep_PERIB_INTB189:
 2746                             	.LFB161:
 548:../generate/inthandler.c **** 
 549:../generate/inthandler.c **** //;0x02F4 PERIB INTB189
 550:../generate/inthandler.c **** void INT_Excep_PERIB_INTB189(void){ }
 2747                             		.loc 1 550 35
 2748                             		; Note: Interrupt Handler
 2749 0000 7E AA                   		push.l	r10
 2750                             	.LCFI322:
 2751 0002 EF 0A                   		mov.L	r0, r10
 2752                             	.LCFI323:
 2753                             		.loc 1 550 1
 2754 0004 03                      		nop
 2755 0005 7E BA                   		pop	r10
 2756 0007 7F 95                   		rte
 2757                             	.LFE161:
 2759                             		.section	.text.INT_Excep_PERIB_INTB190,"ax",@progbits
 2760                             		.global	_INT_Excep_PERIB_INTB190
 2762                             	_INT_Excep_PERIB_INTB190:
 2763                             	.LFB162:
 551:../generate/inthandler.c **** 
 552:../generate/inthandler.c **** //;0x02F8 PERIB INTB190
 553:../generate/inthandler.c **** void INT_Excep_PERIB_INTB190(void){ }
 2764                             		.loc 1 553 35
 2765                             		; Note: Interrupt Handler
 2766 0000 7E AA                   		push.l	r10
 2767                             	.LCFI324:
 2768 0002 EF 0A                   		mov.L	r0, r10
 2769                             	.LCFI325:
 2770                             		.loc 1 553 1
 2771 0004 03                      		nop
 2772 0005 7E BA                   		pop	r10
 2773 0007 7F 95                   		rte
 2774                             	.LFE162:
 2776                             		.section	.text.INT_Excep_PERIB_INTB191,"ax",@progbits
 2777                             		.global	_INT_Excep_PERIB_INTB191
 2779                             	_INT_Excep_PERIB_INTB191:
 2780                             	.LFB163:
 554:../generate/inthandler.c **** 
 555:../generate/inthandler.c **** //;0x02FC PERIB INTB191
 556:../generate/inthandler.c **** void INT_Excep_PERIB_INTB191(void){ }
 2781                             		.loc 1 556 35
 2782                             		; Note: Interrupt Handler
 2783 0000 7E AA                   		push.l	r10
 2784                             	.LCFI326:
 2785 0002 EF 0A                   		mov.L	r0, r10
 2786                             	.LCFI327:
 2787                             		.loc 1 556 1
 2788 0004 03                      		nop
 2789 0005 7E BA                   		pop	r10
 2790 0007 7F 95                   		rte
 2791                             	.LFE163:
 2793                             		.section	.text.INT_Excep_PERIB_INTB192,"ax",@progbits
 2794                             		.global	_INT_Excep_PERIB_INTB192
 2796                             	_INT_Excep_PERIB_INTB192:
 2797                             	.LFB164:
 557:../generate/inthandler.c **** 
 558:../generate/inthandler.c **** //;0x0300 PERIB INTB192
 559:../generate/inthandler.c **** void INT_Excep_PERIB_INTB192(void){ }
 2798                             		.loc 1 559 35
 2799                             		; Note: Interrupt Handler
 2800 0000 7E AA                   		push.l	r10
 2801                             	.LCFI328:
 2802 0002 EF 0A                   		mov.L	r0, r10
 2803                             	.LCFI329:
 2804                             		.loc 1 559 1
 2805 0004 03                      		nop
 2806 0005 7E BA                   		pop	r10
 2807 0007 7F 95                   		rte
 2808                             	.LFE164:
 2810                             		.section	.text.INT_Excep_PERIB_INTB193,"ax",@progbits
 2811                             		.global	_INT_Excep_PERIB_INTB193
 2813                             	_INT_Excep_PERIB_INTB193:
 2814                             	.LFB165:
 560:../generate/inthandler.c **** 
 561:../generate/inthandler.c **** //;0x0304 PERIB INTB193
 562:../generate/inthandler.c **** void INT_Excep_PERIB_INTB193(void){ }
 2815                             		.loc 1 562 35
 2816                             		; Note: Interrupt Handler
 2817 0000 7E AA                   		push.l	r10
 2818                             	.LCFI330:
 2819 0002 EF 0A                   		mov.L	r0, r10
 2820                             	.LCFI331:
 2821                             		.loc 1 562 1
 2822 0004 03                      		nop
 2823 0005 7E BA                   		pop	r10
 2824 0007 7F 95                   		rte
 2825                             	.LFE165:
 2827                             		.section	.text.INT_Excep_PERIB_INTB194,"ax",@progbits
 2828                             		.global	_INT_Excep_PERIB_INTB194
 2830                             	_INT_Excep_PERIB_INTB194:
 2831                             	.LFB166:
 563:../generate/inthandler.c **** 
 564:../generate/inthandler.c **** //;0x0308 PERIB INTB194
 565:../generate/inthandler.c **** void INT_Excep_PERIB_INTB194(void){ }
 2832                             		.loc 1 565 35
 2833                             		; Note: Interrupt Handler
 2834 0000 7E AA                   		push.l	r10
 2835                             	.LCFI332:
 2836 0002 EF 0A                   		mov.L	r0, r10
 2837                             	.LCFI333:
 2838                             		.loc 1 565 1
 2839 0004 03                      		nop
 2840 0005 7E BA                   		pop	r10
 2841 0007 7F 95                   		rte
 2842                             	.LFE166:
 2844                             		.section	.text.INT_Excep_PERIB_INTB195,"ax",@progbits
 2845                             		.global	_INT_Excep_PERIB_INTB195
 2847                             	_INT_Excep_PERIB_INTB195:
 2848                             	.LFB167:
 566:../generate/inthandler.c **** 
 567:../generate/inthandler.c **** //;0x030C PERIB INTB195
 568:../generate/inthandler.c **** void INT_Excep_PERIB_INTB195(void){ }
 2849                             		.loc 1 568 35
 2850                             		; Note: Interrupt Handler
 2851 0000 7E AA                   		push.l	r10
 2852                             	.LCFI334:
 2853 0002 EF 0A                   		mov.L	r0, r10
 2854                             	.LCFI335:
 2855                             		.loc 1 568 1
 2856 0004 03                      		nop
 2857 0005 7E BA                   		pop	r10
 2858 0007 7F 95                   		rte
 2859                             	.LFE167:
 2861                             		.section	.text.INT_Excep_PERIB_INTB196,"ax",@progbits
 2862                             		.global	_INT_Excep_PERIB_INTB196
 2864                             	_INT_Excep_PERIB_INTB196:
 2865                             	.LFB168:
 569:../generate/inthandler.c **** 
 570:../generate/inthandler.c **** //;0x0310 PERIB INTB196
 571:../generate/inthandler.c **** void INT_Excep_PERIB_INTB196(void){ }
 2866                             		.loc 1 571 35
 2867                             		; Note: Interrupt Handler
 2868 0000 7E AA                   		push.l	r10
 2869                             	.LCFI336:
 2870 0002 EF 0A                   		mov.L	r0, r10
 2871                             	.LCFI337:
 2872                             		.loc 1 571 1
 2873 0004 03                      		nop
 2874 0005 7E BA                   		pop	r10
 2875 0007 7F 95                   		rte
 2876                             	.LFE168:
 2878                             		.section	.text.INT_Excep_PERIB_INTB197,"ax",@progbits
 2879                             		.global	_INT_Excep_PERIB_INTB197
 2881                             	_INT_Excep_PERIB_INTB197:
 2882                             	.LFB169:
 572:../generate/inthandler.c **** 
 573:../generate/inthandler.c **** //;0x0314 PERIB INTB197
 574:../generate/inthandler.c **** void INT_Excep_PERIB_INTB197(void){ }
 2883                             		.loc 1 574 35
 2884                             		; Note: Interrupt Handler
 2885 0000 7E AA                   		push.l	r10
 2886                             	.LCFI338:
 2887 0002 EF 0A                   		mov.L	r0, r10
 2888                             	.LCFI339:
 2889                             		.loc 1 574 1
 2890 0004 03                      		nop
 2891 0005 7E BA                   		pop	r10
 2892 0007 7F 95                   		rte
 2893                             	.LFE169:
 2895                             		.section	.text.INT_Excep_PERIB_INTB198,"ax",@progbits
 2896                             		.global	_INT_Excep_PERIB_INTB198
 2898                             	_INT_Excep_PERIB_INTB198:
 2899                             	.LFB170:
 575:../generate/inthandler.c **** 
 576:../generate/inthandler.c **** //;0x0318 PERIB INTB198
 577:../generate/inthandler.c **** void INT_Excep_PERIB_INTB198(void){ }
 2900                             		.loc 1 577 35
 2901                             		; Note: Interrupt Handler
 2902 0000 7E AA                   		push.l	r10
 2903                             	.LCFI340:
 2904 0002 EF 0A                   		mov.L	r0, r10
 2905                             	.LCFI341:
 2906                             		.loc 1 577 1
 2907 0004 03                      		nop
 2908 0005 7E BA                   		pop	r10
 2909 0007 7F 95                   		rte
 2910                             	.LFE170:
 2912                             		.section	.text.INT_Excep_PERIB_INTB199,"ax",@progbits
 2913                             		.global	_INT_Excep_PERIB_INTB199
 2915                             	_INT_Excep_PERIB_INTB199:
 2916                             	.LFB171:
 578:../generate/inthandler.c **** 
 579:../generate/inthandler.c **** //;0x031C PERIB INTB199
 580:../generate/inthandler.c **** void INT_Excep_PERIB_INTB199(void){ }
 2917                             		.loc 1 580 35
 2918                             		; Note: Interrupt Handler
 2919 0000 7E AA                   		push.l	r10
 2920                             	.LCFI342:
 2921 0002 EF 0A                   		mov.L	r0, r10
 2922                             	.LCFI343:
 2923                             		.loc 1 580 1
 2924 0004 03                      		nop
 2925 0005 7E BA                   		pop	r10
 2926 0007 7F 95                   		rte
 2927                             	.LFE171:
 2929                             		.section	.text.INT_Excep_PERIB_INTB200,"ax",@progbits
 2930                             		.global	_INT_Excep_PERIB_INTB200
 2932                             	_INT_Excep_PERIB_INTB200:
 2933                             	.LFB172:
 581:../generate/inthandler.c **** 
 582:../generate/inthandler.c **** //;0x0320 PERIB INTB200
 583:../generate/inthandler.c **** void INT_Excep_PERIB_INTB200(void){ }
 2934                             		.loc 1 583 35
 2935                             		; Note: Interrupt Handler
 2936 0000 7E AA                   		push.l	r10
 2937                             	.LCFI344:
 2938 0002 EF 0A                   		mov.L	r0, r10
 2939                             	.LCFI345:
 2940                             		.loc 1 583 1
 2941 0004 03                      		nop
 2942 0005 7E BA                   		pop	r10
 2943 0007 7F 95                   		rte
 2944                             	.LFE172:
 2946                             		.section	.text.INT_Excep_PERIB_INTB201,"ax",@progbits
 2947                             		.global	_INT_Excep_PERIB_INTB201
 2949                             	_INT_Excep_PERIB_INTB201:
 2950                             	.LFB173:
 584:../generate/inthandler.c **** 
 585:../generate/inthandler.c **** //;0x0324 PERIB INTB201
 586:../generate/inthandler.c **** void INT_Excep_PERIB_INTB201(void){ }
 2951                             		.loc 1 586 35
 2952                             		; Note: Interrupt Handler
 2953 0000 7E AA                   		push.l	r10
 2954                             	.LCFI346:
 2955 0002 EF 0A                   		mov.L	r0, r10
 2956                             	.LCFI347:
 2957                             		.loc 1 586 1
 2958 0004 03                      		nop
 2959 0005 7E BA                   		pop	r10
 2960 0007 7F 95                   		rte
 2961                             	.LFE173:
 2963                             		.section	.text.INT_Excep_PERIB_INTB202,"ax",@progbits
 2964                             		.global	_INT_Excep_PERIB_INTB202
 2966                             	_INT_Excep_PERIB_INTB202:
 2967                             	.LFB174:
 587:../generate/inthandler.c **** 
 588:../generate/inthandler.c **** //;0x0328 PERIB INTB202
 589:../generate/inthandler.c **** void INT_Excep_PERIB_INTB202(void){ }
 2968                             		.loc 1 589 35
 2969                             		; Note: Interrupt Handler
 2970 0000 7E AA                   		push.l	r10
 2971                             	.LCFI348:
 2972 0002 EF 0A                   		mov.L	r0, r10
 2973                             	.LCFI349:
 2974                             		.loc 1 589 1
 2975 0004 03                      		nop
 2976 0005 7E BA                   		pop	r10
 2977 0007 7F 95                   		rte
 2978                             	.LFE174:
 2980                             		.section	.text.INT_Excep_PERIB_INTB203,"ax",@progbits
 2981                             		.global	_INT_Excep_PERIB_INTB203
 2983                             	_INT_Excep_PERIB_INTB203:
 2984                             	.LFB175:
 590:../generate/inthandler.c **** 
 591:../generate/inthandler.c **** //;0x032C PERIB INTB203
 592:../generate/inthandler.c **** void INT_Excep_PERIB_INTB203(void){ }
 2985                             		.loc 1 592 35
 2986                             		; Note: Interrupt Handler
 2987 0000 7E AA                   		push.l	r10
 2988                             	.LCFI350:
 2989 0002 EF 0A                   		mov.L	r0, r10
 2990                             	.LCFI351:
 2991                             		.loc 1 592 1
 2992 0004 03                      		nop
 2993 0005 7E BA                   		pop	r10
 2994 0007 7F 95                   		rte
 2995                             	.LFE175:
 2997                             		.section	.text.INT_Excep_PERIB_INTB204,"ax",@progbits
 2998                             		.global	_INT_Excep_PERIB_INTB204
 3000                             	_INT_Excep_PERIB_INTB204:
 3001                             	.LFB176:
 593:../generate/inthandler.c **** 
 594:../generate/inthandler.c **** //;0x0320 PERIB INTB204
 595:../generate/inthandler.c **** void INT_Excep_PERIB_INTB204(void){ }
 3002                             		.loc 1 595 35
 3003                             		; Note: Interrupt Handler
 3004 0000 7E AA                   		push.l	r10
 3005                             	.LCFI352:
 3006 0002 EF 0A                   		mov.L	r0, r10
 3007                             	.LCFI353:
 3008                             		.loc 1 595 1
 3009 0004 03                      		nop
 3010 0005 7E BA                   		pop	r10
 3011 0007 7F 95                   		rte
 3012                             	.LFE176:
 3014                             		.section	.text.INT_Excep_PERIB_INTB205,"ax",@progbits
 3015                             		.global	_INT_Excep_PERIB_INTB205
 3017                             	_INT_Excep_PERIB_INTB205:
 3018                             	.LFB177:
 596:../generate/inthandler.c **** 
 597:../generate/inthandler.c **** //;0x0334 PERIB INTB205
 598:../generate/inthandler.c **** void INT_Excep_PERIB_INTB205(void){ }
 3019                             		.loc 1 598 35
 3020                             		; Note: Interrupt Handler
 3021 0000 7E AA                   		push.l	r10
 3022                             	.LCFI354:
 3023 0002 EF 0A                   		mov.L	r0, r10
 3024                             	.LCFI355:
 3025                             		.loc 1 598 1
 3026 0004 03                      		nop
 3027 0005 7E BA                   		pop	r10
 3028 0007 7F 95                   		rte
 3029                             	.LFE177:
 3031                             		.section	.text.INT_Excep_PERIB_INTB206,"ax",@progbits
 3032                             		.global	_INT_Excep_PERIB_INTB206
 3034                             	_INT_Excep_PERIB_INTB206:
 3035                             	.LFB178:
 599:../generate/inthandler.c **** 
 600:../generate/inthandler.c **** //;0x0338 PERIB INTB206
 601:../generate/inthandler.c **** void INT_Excep_PERIB_INTB206(void){ }
 3036                             		.loc 1 601 35
 3037                             		; Note: Interrupt Handler
 3038 0000 7E AA                   		push.l	r10
 3039                             	.LCFI356:
 3040 0002 EF 0A                   		mov.L	r0, r10
 3041                             	.LCFI357:
 3042                             		.loc 1 601 1
 3043 0004 03                      		nop
 3044 0005 7E BA                   		pop	r10
 3045 0007 7F 95                   		rte
 3046                             	.LFE178:
 3048                             		.section	.text.INT_Excep_PERIB_INTB207,"ax",@progbits
 3049                             		.global	_INT_Excep_PERIB_INTB207
 3051                             	_INT_Excep_PERIB_INTB207:
 3052                             	.LFB179:
 602:../generate/inthandler.c **** 
 603:../generate/inthandler.c **** //;0x033C PERIB INTB207
 604:../generate/inthandler.c **** void INT_Excep_PERIB_INTB207(void){ }
 3053                             		.loc 1 604 35
 3054                             		; Note: Interrupt Handler
 3055 0000 7E AA                   		push.l	r10
 3056                             	.LCFI358:
 3057 0002 EF 0A                   		mov.L	r0, r10
 3058                             	.LCFI359:
 3059                             		.loc 1 604 1
 3060 0004 03                      		nop
 3061 0005 7E BA                   		pop	r10
 3062 0007 7F 95                   		rte
 3063                             	.LFE179:
 3065                             		.section	.text.INT_Excep_PERIA_INTA208,"ax",@progbits
 3066                             		.global	_INT_Excep_PERIA_INTA208
 3068                             	_INT_Excep_PERIA_INTA208:
 3069                             	.LFB180:
 605:../generate/inthandler.c **** 
 606:../generate/inthandler.c **** //;0x0340 PERIA INTA208
 607:../generate/inthandler.c **** void INT_Excep_PERIA_INTA208(void){ }
 3070                             		.loc 1 607 35
 3071                             		; Note: Interrupt Handler
 3072 0000 7E AA                   		push.l	r10
 3073                             	.LCFI360:
 3074 0002 EF 0A                   		mov.L	r0, r10
 3075                             	.LCFI361:
 3076                             		.loc 1 607 1
 3077 0004 03                      		nop
 3078 0005 7E BA                   		pop	r10
 3079 0007 7F 95                   		rte
 3080                             	.LFE180:
 3082                             		.section	.text.INT_Excep_PERIA_INTA209,"ax",@progbits
 3083                             		.global	_INT_Excep_PERIA_INTA209
 3085                             	_INT_Excep_PERIA_INTA209:
 3086                             	.LFB181:
 608:../generate/inthandler.c **** 
 609:../generate/inthandler.c **** //;0x0344 PERIA INTA209
 610:../generate/inthandler.c **** void INT_Excep_PERIA_INTA209(void){ }
 3087                             		.loc 1 610 35
 3088                             		; Note: Interrupt Handler
 3089 0000 7E AA                   		push.l	r10
 3090                             	.LCFI362:
 3091 0002 EF 0A                   		mov.L	r0, r10
 3092                             	.LCFI363:
 3093                             		.loc 1 610 1
 3094 0004 03                      		nop
 3095 0005 7E BA                   		pop	r10
 3096 0007 7F 95                   		rte
 3097                             	.LFE181:
 3099                             		.section	.text.INT_Excep_PERIA_INTA210,"ax",@progbits
 3100                             		.global	_INT_Excep_PERIA_INTA210
 3102                             	_INT_Excep_PERIA_INTA210:
 3103                             	.LFB182:
 611:../generate/inthandler.c **** 
 612:../generate/inthandler.c **** //;0x0348 PERIA INTA210
 613:../generate/inthandler.c **** void INT_Excep_PERIA_INTA210(void){ }
 3104                             		.loc 1 613 35
 3105                             		; Note: Interrupt Handler
 3106 0000 7E AA                   		push.l	r10
 3107                             	.LCFI364:
 3108 0002 EF 0A                   		mov.L	r0, r10
 3109                             	.LCFI365:
 3110                             		.loc 1 613 1
 3111 0004 03                      		nop
 3112 0005 7E BA                   		pop	r10
 3113 0007 7F 95                   		rte
 3114                             	.LFE182:
 3116                             		.section	.text.INT_Excep_PERIA_INTA211,"ax",@progbits
 3117                             		.global	_INT_Excep_PERIA_INTA211
 3119                             	_INT_Excep_PERIA_INTA211:
 3120                             	.LFB183:
 614:../generate/inthandler.c **** 
 615:../generate/inthandler.c **** //;0x034C PERIA INTA211
 616:../generate/inthandler.c **** void INT_Excep_PERIA_INTA211(void){ }
 3121                             		.loc 1 616 35
 3122                             		; Note: Interrupt Handler
 3123 0000 7E AA                   		push.l	r10
 3124                             	.LCFI366:
 3125 0002 EF 0A                   		mov.L	r0, r10
 3126                             	.LCFI367:
 3127                             		.loc 1 616 1
 3128 0004 03                      		nop
 3129 0005 7E BA                   		pop	r10
 3130 0007 7F 95                   		rte
 3131                             	.LFE183:
 3133                             		.section	.text.INT_Excep_PERIA_INTA212,"ax",@progbits
 3134                             		.global	_INT_Excep_PERIA_INTA212
 3136                             	_INT_Excep_PERIA_INTA212:
 3137                             	.LFB184:
 617:../generate/inthandler.c **** 
 618:../generate/inthandler.c **** //;0x0350 PERIA INTA212
 619:../generate/inthandler.c **** void INT_Excep_PERIA_INTA212(void){ }
 3138                             		.loc 1 619 35
 3139                             		; Note: Interrupt Handler
 3140 0000 7E AA                   		push.l	r10
 3141                             	.LCFI368:
 3142 0002 EF 0A                   		mov.L	r0, r10
 3143                             	.LCFI369:
 3144                             		.loc 1 619 1
 3145 0004 03                      		nop
 3146 0005 7E BA                   		pop	r10
 3147 0007 7F 95                   		rte
 3148                             	.LFE184:
 3150                             		.section	.text.INT_Excep_PERIA_INTA213,"ax",@progbits
 3151                             		.global	_INT_Excep_PERIA_INTA213
 3153                             	_INT_Excep_PERIA_INTA213:
 3154                             	.LFB185:
 620:../generate/inthandler.c **** 
 621:../generate/inthandler.c **** //;0x0354 PERIA INTA213
 622:../generate/inthandler.c **** void INT_Excep_PERIA_INTA213(void){ }
 3155                             		.loc 1 622 35
 3156                             		; Note: Interrupt Handler
 3157 0000 7E AA                   		push.l	r10
 3158                             	.LCFI370:
 3159 0002 EF 0A                   		mov.L	r0, r10
 3160                             	.LCFI371:
 3161                             		.loc 1 622 1
 3162 0004 03                      		nop
 3163 0005 7E BA                   		pop	r10
 3164 0007 7F 95                   		rte
 3165                             	.LFE185:
 3167                             		.section	.text.INT_Excep_PERIA_INTA214,"ax",@progbits
 3168                             		.global	_INT_Excep_PERIA_INTA214
 3170                             	_INT_Excep_PERIA_INTA214:
 3171                             	.LFB186:
 623:../generate/inthandler.c **** 
 624:../generate/inthandler.c **** //;0x0358 PERIA INTA214
 625:../generate/inthandler.c **** void INT_Excep_PERIA_INTA214(void){ }
 3172                             		.loc 1 625 35
 3173                             		; Note: Interrupt Handler
 3174 0000 7E AA                   		push.l	r10
 3175                             	.LCFI372:
 3176 0002 EF 0A                   		mov.L	r0, r10
 3177                             	.LCFI373:
 3178                             		.loc 1 625 1
 3179 0004 03                      		nop
 3180 0005 7E BA                   		pop	r10
 3181 0007 7F 95                   		rte
 3182                             	.LFE186:
 3184                             		.section	.text.INT_Excep_PERIA_INTA215,"ax",@progbits
 3185                             		.global	_INT_Excep_PERIA_INTA215
 3187                             	_INT_Excep_PERIA_INTA215:
 3188                             	.LFB187:
 626:../generate/inthandler.c **** 
 627:../generate/inthandler.c **** //;0x035C PERIA INTA215
 628:../generate/inthandler.c **** void INT_Excep_PERIA_INTA215(void){ }
 3189                             		.loc 1 628 35
 3190                             		; Note: Interrupt Handler
 3191 0000 7E AA                   		push.l	r10
 3192                             	.LCFI374:
 3193 0002 EF 0A                   		mov.L	r0, r10
 3194                             	.LCFI375:
 3195                             		.loc 1 628 1
 3196 0004 03                      		nop
 3197 0005 7E BA                   		pop	r10
 3198 0007 7F 95                   		rte
 3199                             	.LFE187:
 3201                             		.section	.text.INT_Excep_PERIA_INTA216,"ax",@progbits
 3202                             		.global	_INT_Excep_PERIA_INTA216
 3204                             	_INT_Excep_PERIA_INTA216:
 3205                             	.LFB188:
 629:../generate/inthandler.c **** 
 630:../generate/inthandler.c **** //;0x0360 PERIA INTA216
 631:../generate/inthandler.c **** void INT_Excep_PERIA_INTA216(void){ }
 3206                             		.loc 1 631 35
 3207                             		; Note: Interrupt Handler
 3208 0000 7E AA                   		push.l	r10
 3209                             	.LCFI376:
 3210 0002 EF 0A                   		mov.L	r0, r10
 3211                             	.LCFI377:
 3212                             		.loc 1 631 1
 3213 0004 03                      		nop
 3214 0005 7E BA                   		pop	r10
 3215 0007 7F 95                   		rte
 3216                             	.LFE188:
 3218                             		.section	.text.INT_Excep_PERIA_INTA217,"ax",@progbits
 3219                             		.global	_INT_Excep_PERIA_INTA217
 3221                             	_INT_Excep_PERIA_INTA217:
 3222                             	.LFB189:
 632:../generate/inthandler.c **** 
 633:../generate/inthandler.c **** //;0x0364 PERIA INTA217
 634:../generate/inthandler.c **** void INT_Excep_PERIA_INTA217(void){ }
 3223                             		.loc 1 634 35
 3224                             		; Note: Interrupt Handler
 3225 0000 7E AA                   		push.l	r10
 3226                             	.LCFI378:
 3227 0002 EF 0A                   		mov.L	r0, r10
 3228                             	.LCFI379:
 3229                             		.loc 1 634 1
 3230 0004 03                      		nop
 3231 0005 7E BA                   		pop	r10
 3232 0007 7F 95                   		rte
 3233                             	.LFE189:
 3235                             		.section	.text.INT_Excep_PERIA_INTA218,"ax",@progbits
 3236                             		.global	_INT_Excep_PERIA_INTA218
 3238                             	_INT_Excep_PERIA_INTA218:
 3239                             	.LFB190:
 635:../generate/inthandler.c **** 
 636:../generate/inthandler.c **** //;0x0368 PERIA INTA218
 637:../generate/inthandler.c **** void INT_Excep_PERIA_INTA218(void){ }
 3240                             		.loc 1 637 35
 3241                             		; Note: Interrupt Handler
 3242 0000 7E AA                   		push.l	r10
 3243                             	.LCFI380:
 3244 0002 EF 0A                   		mov.L	r0, r10
 3245                             	.LCFI381:
 3246                             		.loc 1 637 1
 3247 0004 03                      		nop
 3248 0005 7E BA                   		pop	r10
 3249 0007 7F 95                   		rte
 3250                             	.LFE190:
 3252                             		.section	.text.INT_Excep_PERIA_INTA219,"ax",@progbits
 3253                             		.global	_INT_Excep_PERIA_INTA219
 3255                             	_INT_Excep_PERIA_INTA219:
 3256                             	.LFB191:
 638:../generate/inthandler.c **** 
 639:../generate/inthandler.c **** //;0x036C PERIA INTA219
 640:../generate/inthandler.c **** void INT_Excep_PERIA_INTA219(void){ }
 3257                             		.loc 1 640 35
 3258                             		; Note: Interrupt Handler
 3259 0000 7E AA                   		push.l	r10
 3260                             	.LCFI382:
 3261 0002 EF 0A                   		mov.L	r0, r10
 3262                             	.LCFI383:
 3263                             		.loc 1 640 1
 3264 0004 03                      		nop
 3265 0005 7E BA                   		pop	r10
 3266 0007 7F 95                   		rte
 3267                             	.LFE191:
 3269                             		.section	.text.INT_Excep_PERIA_INTA220,"ax",@progbits
 3270                             		.global	_INT_Excep_PERIA_INTA220
 3272                             	_INT_Excep_PERIA_INTA220:
 3273                             	.LFB192:
 641:../generate/inthandler.c **** 
 642:../generate/inthandler.c **** //;0x0370 PERIA INTA220
 643:../generate/inthandler.c **** void INT_Excep_PERIA_INTA220(void){ }
 3274                             		.loc 1 643 35
 3275                             		; Note: Interrupt Handler
 3276 0000 7E AA                   		push.l	r10
 3277                             	.LCFI384:
 3278 0002 EF 0A                   		mov.L	r0, r10
 3279                             	.LCFI385:
 3280                             		.loc 1 643 1
 3281 0004 03                      		nop
 3282 0005 7E BA                   		pop	r10
 3283 0007 7F 95                   		rte
 3284                             	.LFE192:
 3286                             		.section	.text.INT_Excep_PERIA_INTA221,"ax",@progbits
 3287                             		.global	_INT_Excep_PERIA_INTA221
 3289                             	_INT_Excep_PERIA_INTA221:
 3290                             	.LFB193:
 644:../generate/inthandler.c **** 
 645:../generate/inthandler.c **** //;0x0374 PERIA INTA221
 646:../generate/inthandler.c **** void INT_Excep_PERIA_INTA221(void){ }
 3291                             		.loc 1 646 35
 3292                             		; Note: Interrupt Handler
 3293 0000 7E AA                   		push.l	r10
 3294                             	.LCFI386:
 3295 0002 EF 0A                   		mov.L	r0, r10
 3296                             	.LCFI387:
 3297                             		.loc 1 646 1
 3298 0004 03                      		nop
 3299 0005 7E BA                   		pop	r10
 3300 0007 7F 95                   		rte
 3301                             	.LFE193:
 3303                             		.section	.text.INT_Excep_PERIA_INTA222,"ax",@progbits
 3304                             		.global	_INT_Excep_PERIA_INTA222
 3306                             	_INT_Excep_PERIA_INTA222:
 3307                             	.LFB194:
 647:../generate/inthandler.c **** 
 648:../generate/inthandler.c **** //;0x0378 PERIA INTA222
 649:../generate/inthandler.c **** void INT_Excep_PERIA_INTA222(void){ }
 3308                             		.loc 1 649 35
 3309                             		; Note: Interrupt Handler
 3310 0000 7E AA                   		push.l	r10
 3311                             	.LCFI388:
 3312 0002 EF 0A                   		mov.L	r0, r10
 3313                             	.LCFI389:
 3314                             		.loc 1 649 1
 3315 0004 03                      		nop
 3316 0005 7E BA                   		pop	r10
 3317 0007 7F 95                   		rte
 3318                             	.LFE194:
 3320                             		.section	.text.INT_Excep_PERIA_INTA223,"ax",@progbits
 3321                             		.global	_INT_Excep_PERIA_INTA223
 3323                             	_INT_Excep_PERIA_INTA223:
 3324                             	.LFB195:
 650:../generate/inthandler.c **** 
 651:../generate/inthandler.c **** //;0x037C PERIA INTA223
 652:../generate/inthandler.c **** void INT_Excep_PERIA_INTA223(void){ }
 3325                             		.loc 1 652 35
 3326                             		; Note: Interrupt Handler
 3327 0000 7E AA                   		push.l	r10
 3328                             	.LCFI390:
 3329 0002 EF 0A                   		mov.L	r0, r10
 3330                             	.LCFI391:
 3331                             		.loc 1 652 1
 3332 0004 03                      		nop
 3333 0005 7E BA                   		pop	r10
 3334 0007 7F 95                   		rte
 3335                             	.LFE195:
 3337                             		.section	.text.INT_Excep_PERIA_INTA224,"ax",@progbits
 3338                             		.global	_INT_Excep_PERIA_INTA224
 3340                             	_INT_Excep_PERIA_INTA224:
 3341                             	.LFB196:
 653:../generate/inthandler.c **** 
 654:../generate/inthandler.c **** //;0x0380 PERIA INTA224
 655:../generate/inthandler.c **** void INT_Excep_PERIA_INTA224(void){ }
 3342                             		.loc 1 655 35
 3343                             		; Note: Interrupt Handler
 3344 0000 7E AA                   		push.l	r10
 3345                             	.LCFI392:
 3346 0002 EF 0A                   		mov.L	r0, r10
 3347                             	.LCFI393:
 3348                             		.loc 1 655 1
 3349 0004 03                      		nop
 3350 0005 7E BA                   		pop	r10
 3351 0007 7F 95                   		rte
 3352                             	.LFE196:
 3354                             		.section	.text.INT_Excep_PERIA_INTA225,"ax",@progbits
 3355                             		.global	_INT_Excep_PERIA_INTA225
 3357                             	_INT_Excep_PERIA_INTA225:
 3358                             	.LFB197:
 656:../generate/inthandler.c **** 
 657:../generate/inthandler.c **** //;0x0384 PERIA INTA225
 658:../generate/inthandler.c **** void INT_Excep_PERIA_INTA225(void){ }
 3359                             		.loc 1 658 35
 3360                             		; Note: Interrupt Handler
 3361 0000 7E AA                   		push.l	r10
 3362                             	.LCFI394:
 3363 0002 EF 0A                   		mov.L	r0, r10
 3364                             	.LCFI395:
 3365                             		.loc 1 658 1
 3366 0004 03                      		nop
 3367 0005 7E BA                   		pop	r10
 3368 0007 7F 95                   		rte
 3369                             	.LFE197:
 3371                             		.section	.text.INT_Excep_PERIA_INTA226,"ax",@progbits
 3372                             		.global	_INT_Excep_PERIA_INTA226
 3374                             	_INT_Excep_PERIA_INTA226:
 3375                             	.LFB198:
 659:../generate/inthandler.c **** 
 660:../generate/inthandler.c **** //;0x0388 PERIA INTA226
 661:../generate/inthandler.c **** void INT_Excep_PERIA_INTA226(void){ }
 3376                             		.loc 1 661 35
 3377                             		; Note: Interrupt Handler
 3378 0000 7E AA                   		push.l	r10
 3379                             	.LCFI396:
 3380 0002 EF 0A                   		mov.L	r0, r10
 3381                             	.LCFI397:
 3382                             		.loc 1 661 1
 3383 0004 03                      		nop
 3384 0005 7E BA                   		pop	r10
 3385 0007 7F 95                   		rte
 3386                             	.LFE198:
 3388                             		.section	.text.INT_Excep_PERIA_INTA227,"ax",@progbits
 3389                             		.global	_INT_Excep_PERIA_INTA227
 3391                             	_INT_Excep_PERIA_INTA227:
 3392                             	.LFB199:
 662:../generate/inthandler.c **** 
 663:../generate/inthandler.c **** //;0x038C PERIA INTA227
 664:../generate/inthandler.c **** void INT_Excep_PERIA_INTA227(void){ }
 3393                             		.loc 1 664 35
 3394                             		; Note: Interrupt Handler
 3395 0000 7E AA                   		push.l	r10
 3396                             	.LCFI398:
 3397 0002 EF 0A                   		mov.L	r0, r10
 3398                             	.LCFI399:
 3399                             		.loc 1 664 1
 3400 0004 03                      		nop
 3401 0005 7E BA                   		pop	r10
 3402 0007 7F 95                   		rte
 3403                             	.LFE199:
 3405                             		.section	.text.INT_Excep_PERIA_INTA228,"ax",@progbits
 3406                             		.global	_INT_Excep_PERIA_INTA228
 3408                             	_INT_Excep_PERIA_INTA228:
 3409                             	.LFB200:
 665:../generate/inthandler.c **** 
 666:../generate/inthandler.c **** //;0x0390 PERIA INTA228
 667:../generate/inthandler.c **** void INT_Excep_PERIA_INTA228(void){ }
 3410                             		.loc 1 667 35
 3411                             		; Note: Interrupt Handler
 3412 0000 7E AA                   		push.l	r10
 3413                             	.LCFI400:
 3414 0002 EF 0A                   		mov.L	r0, r10
 3415                             	.LCFI401:
 3416                             		.loc 1 667 1
 3417 0004 03                      		nop
 3418 0005 7E BA                   		pop	r10
 3419 0007 7F 95                   		rte
 3420                             	.LFE200:
 3422                             		.section	.text.INT_Excep_PERIA_INTA229,"ax",@progbits
 3423                             		.global	_INT_Excep_PERIA_INTA229
 3425                             	_INT_Excep_PERIA_INTA229:
 3426                             	.LFB201:
 668:../generate/inthandler.c **** 
 669:../generate/inthandler.c **** //;0x0394 PERIA INTA229
 670:../generate/inthandler.c **** void INT_Excep_PERIA_INTA229(void){ }
 3427                             		.loc 1 670 35
 3428                             		; Note: Interrupt Handler
 3429 0000 7E AA                   		push.l	r10
 3430                             	.LCFI402:
 3431 0002 EF 0A                   		mov.L	r0, r10
 3432                             	.LCFI403:
 3433                             		.loc 1 670 1
 3434 0004 03                      		nop
 3435 0005 7E BA                   		pop	r10
 3436 0007 7F 95                   		rte
 3437                             	.LFE201:
 3439                             		.section	.text.INT_Excep_PERIA_INTA230,"ax",@progbits
 3440                             		.global	_INT_Excep_PERIA_INTA230
 3442                             	_INT_Excep_PERIA_INTA230:
 3443                             	.LFB202:
 671:../generate/inthandler.c **** 
 672:../generate/inthandler.c **** //;0x0398 PERIA INTA230
 673:../generate/inthandler.c **** void INT_Excep_PERIA_INTA230(void){ }
 3444                             		.loc 1 673 35
 3445                             		; Note: Interrupt Handler
 3446 0000 7E AA                   		push.l	r10
 3447                             	.LCFI404:
 3448 0002 EF 0A                   		mov.L	r0, r10
 3449                             	.LCFI405:
 3450                             		.loc 1 673 1
 3451 0004 03                      		nop
 3452 0005 7E BA                   		pop	r10
 3453 0007 7F 95                   		rte
 3454                             	.LFE202:
 3456                             		.section	.text.INT_Excep_PERIA_INTA231,"ax",@progbits
 3457                             		.global	_INT_Excep_PERIA_INTA231
 3459                             	_INT_Excep_PERIA_INTA231:
 3460                             	.LFB203:
 674:../generate/inthandler.c **** 
 675:../generate/inthandler.c **** //;0x039C PERIA INTA231
 676:../generate/inthandler.c **** void INT_Excep_PERIA_INTA231(void){ }
 3461                             		.loc 1 676 35
 3462                             		; Note: Interrupt Handler
 3463 0000 7E AA                   		push.l	r10
 3464                             	.LCFI406:
 3465 0002 EF 0A                   		mov.L	r0, r10
 3466                             	.LCFI407:
 3467                             		.loc 1 676 1
 3468 0004 03                      		nop
 3469 0005 7E BA                   		pop	r10
 3470 0007 7F 95                   		rte
 3471                             	.LFE203:
 3473                             		.section	.text.INT_Excep_PERIA_INTA232,"ax",@progbits
 3474                             		.global	_INT_Excep_PERIA_INTA232
 3476                             	_INT_Excep_PERIA_INTA232:
 3477                             	.LFB204:
 677:../generate/inthandler.c **** 
 678:../generate/inthandler.c **** //;0x03A0 PERIA INTA232
 679:../generate/inthandler.c **** void INT_Excep_PERIA_INTA232(void){ }
 3478                             		.loc 1 679 35
 3479                             		; Note: Interrupt Handler
 3480 0000 7E AA                   		push.l	r10
 3481                             	.LCFI408:
 3482 0002 EF 0A                   		mov.L	r0, r10
 3483                             	.LCFI409:
 3484                             		.loc 1 679 1
 3485 0004 03                      		nop
 3486 0005 7E BA                   		pop	r10
 3487 0007 7F 95                   		rte
 3488                             	.LFE204:
 3490                             		.section	.text.INT_Excep_PERIA_INTA233,"ax",@progbits
 3491                             		.global	_INT_Excep_PERIA_INTA233
 3493                             	_INT_Excep_PERIA_INTA233:
 3494                             	.LFB205:
 680:../generate/inthandler.c **** 
 681:../generate/inthandler.c **** //;0x03A4 PERIA INTA233
 682:../generate/inthandler.c **** void INT_Excep_PERIA_INTA233(void){ }
 3495                             		.loc 1 682 35
 3496                             		; Note: Interrupt Handler
 3497 0000 7E AA                   		push.l	r10
 3498                             	.LCFI410:
 3499 0002 EF 0A                   		mov.L	r0, r10
 3500                             	.LCFI411:
 3501                             		.loc 1 682 1
 3502 0004 03                      		nop
 3503 0005 7E BA                   		pop	r10
 3504 0007 7F 95                   		rte
 3505                             	.LFE205:
 3507                             		.section	.text.INT_Excep_PERIA_INTA234,"ax",@progbits
 3508                             		.global	_INT_Excep_PERIA_INTA234
 3510                             	_INT_Excep_PERIA_INTA234:
 3511                             	.LFB206:
 683:../generate/inthandler.c **** 
 684:../generate/inthandler.c **** //;0x03A8 PERIA INTA234
 685:../generate/inthandler.c **** void INT_Excep_PERIA_INTA234(void){ }
 3512                             		.loc 1 685 35
 3513                             		; Note: Interrupt Handler
 3514 0000 7E AA                   		push.l	r10
 3515                             	.LCFI412:
 3516 0002 EF 0A                   		mov.L	r0, r10
 3517                             	.LCFI413:
 3518                             		.loc 1 685 1
 3519 0004 03                      		nop
 3520 0005 7E BA                   		pop	r10
 3521 0007 7F 95                   		rte
 3522                             	.LFE206:
 3524                             		.section	.text.INT_Excep_PERIA_INTA235,"ax",@progbits
 3525                             		.global	_INT_Excep_PERIA_INTA235
 3527                             	_INT_Excep_PERIA_INTA235:
 3528                             	.LFB207:
 686:../generate/inthandler.c **** 
 687:../generate/inthandler.c **** //;0x03AC PERIA INTA235
 688:../generate/inthandler.c **** void INT_Excep_PERIA_INTA235(void){ }
 3529                             		.loc 1 688 35
 3530                             		; Note: Interrupt Handler
 3531 0000 7E AA                   		push.l	r10
 3532                             	.LCFI414:
 3533 0002 EF 0A                   		mov.L	r0, r10
 3534                             	.LCFI415:
 3535                             		.loc 1 688 1
 3536 0004 03                      		nop
 3537 0005 7E BA                   		pop	r10
 3538 0007 7F 95                   		rte
 3539                             	.LFE207:
 3541                             		.section	.text.INT_Excep_PERIA_INTA236,"ax",@progbits
 3542                             		.global	_INT_Excep_PERIA_INTA236
 3544                             	_INT_Excep_PERIA_INTA236:
 3545                             	.LFB208:
 689:../generate/inthandler.c **** 
 690:../generate/inthandler.c **** //;0x03B0 PERIA INTA236
 691:../generate/inthandler.c **** void INT_Excep_PERIA_INTA236(void){ }
 3546                             		.loc 1 691 35
 3547                             		; Note: Interrupt Handler
 3548 0000 7E AA                   		push.l	r10
 3549                             	.LCFI416:
 3550 0002 EF 0A                   		mov.L	r0, r10
 3551                             	.LCFI417:
 3552                             		.loc 1 691 1
 3553 0004 03                      		nop
 3554 0005 7E BA                   		pop	r10
 3555 0007 7F 95                   		rte
 3556                             	.LFE208:
 3558                             		.section	.text.INT_Excep_PERIA_INTA237,"ax",@progbits
 3559                             		.global	_INT_Excep_PERIA_INTA237
 3561                             	_INT_Excep_PERIA_INTA237:
 3562                             	.LFB209:
 692:../generate/inthandler.c **** 
 693:../generate/inthandler.c **** //;0x04B4 PERIA INTA237
 694:../generate/inthandler.c **** void INT_Excep_PERIA_INTA237(void){ }
 3563                             		.loc 1 694 35
 3564                             		; Note: Interrupt Handler
 3565 0000 7E AA                   		push.l	r10
 3566                             	.LCFI418:
 3567 0002 EF 0A                   		mov.L	r0, r10
 3568                             	.LCFI419:
 3569                             		.loc 1 694 1
 3570 0004 03                      		nop
 3571 0005 7E BA                   		pop	r10
 3572 0007 7F 95                   		rte
 3573                             	.LFE209:
 3575                             		.section	.text.INT_Excep_PERIA_INTA238,"ax",@progbits
 3576                             		.global	_INT_Excep_PERIA_INTA238
 3578                             	_INT_Excep_PERIA_INTA238:
 3579                             	.LFB210:
 695:../generate/inthandler.c **** 
 696:../generate/inthandler.c **** //;0x03B8 PERIA INTA238
 697:../generate/inthandler.c **** void INT_Excep_PERIA_INTA238(void){ }
 3580                             		.loc 1 697 35
 3581                             		; Note: Interrupt Handler
 3582 0000 7E AA                   		push.l	r10
 3583                             	.LCFI420:
 3584 0002 EF 0A                   		mov.L	r0, r10
 3585                             	.LCFI421:
 3586                             		.loc 1 697 1
 3587 0004 03                      		nop
 3588 0005 7E BA                   		pop	r10
 3589 0007 7F 95                   		rte
 3590                             	.LFE210:
 3592                             		.section	.text.INT_Excep_PERIA_INTA239,"ax",@progbits
 3593                             		.global	_INT_Excep_PERIA_INTA239
 3595                             	_INT_Excep_PERIA_INTA239:
 3596                             	.LFB211:
 698:../generate/inthandler.c **** 
 699:../generate/inthandler.c **** //;0x03BC PERIA INTA239
 700:../generate/inthandler.c **** void INT_Excep_PERIA_INTA239(void){ }
 3597                             		.loc 1 700 35
 3598                             		; Note: Interrupt Handler
 3599 0000 7E AA                   		push.l	r10
 3600                             	.LCFI422:
 3601 0002 EF 0A                   		mov.L	r0, r10
 3602                             	.LCFI423:
 3603                             		.loc 1 700 1
 3604 0004 03                      		nop
 3605 0005 7E BA                   		pop	r10
 3606 0007 7F 95                   		rte
 3607                             	.LFE211:
 3609                             		.section	.text.INT_Excep_PERIA_INTA240,"ax",@progbits
 3610                             		.global	_INT_Excep_PERIA_INTA240
 3612                             	_INT_Excep_PERIA_INTA240:
 3613                             	.LFB212:
 701:../generate/inthandler.c **** 
 702:../generate/inthandler.c **** //;0x03C0 PERIA INTA240
 703:../generate/inthandler.c **** void INT_Excep_PERIA_INTA240(void){ }
 3614                             		.loc 1 703 35
 3615                             		; Note: Interrupt Handler
 3616 0000 7E AA                   		push.l	r10
 3617                             	.LCFI424:
 3618 0002 EF 0A                   		mov.L	r0, r10
 3619                             	.LCFI425:
 3620                             		.loc 1 703 1
 3621 0004 03                      		nop
 3622 0005 7E BA                   		pop	r10
 3623 0007 7F 95                   		rte
 3624                             	.LFE212:
 3626                             		.section	.text.INT_Excep_PERIA_INTA241,"ax",@progbits
 3627                             		.global	_INT_Excep_PERIA_INTA241
 3629                             	_INT_Excep_PERIA_INTA241:
 3630                             	.LFB213:
 704:../generate/inthandler.c **** 
 705:../generate/inthandler.c **** //;0x03C4 PERIA INTA241
 706:../generate/inthandler.c **** void INT_Excep_PERIA_INTA241(void){ }
 3631                             		.loc 1 706 35
 3632                             		; Note: Interrupt Handler
 3633 0000 7E AA                   		push.l	r10
 3634                             	.LCFI426:
 3635 0002 EF 0A                   		mov.L	r0, r10
 3636                             	.LCFI427:
 3637                             		.loc 1 706 1
 3638 0004 03                      		nop
 3639 0005 7E BA                   		pop	r10
 3640 0007 7F 95                   		rte
 3641                             	.LFE213:
 3643                             		.section	.text.INT_Excep_PERIA_INTA242,"ax",@progbits
 3644                             		.global	_INT_Excep_PERIA_INTA242
 3646                             	_INT_Excep_PERIA_INTA242:
 3647                             	.LFB214:
 707:../generate/inthandler.c **** 
 708:../generate/inthandler.c **** //;0x03C8 PERIA INTA242
 709:../generate/inthandler.c **** void INT_Excep_PERIA_INTA242(void){ }
 3648                             		.loc 1 709 35
 3649                             		; Note: Interrupt Handler
 3650 0000 7E AA                   		push.l	r10
 3651                             	.LCFI428:
 3652 0002 EF 0A                   		mov.L	r0, r10
 3653                             	.LCFI429:
 3654                             		.loc 1 709 1
 3655 0004 03                      		nop
 3656 0005 7E BA                   		pop	r10
 3657 0007 7F 95                   		rte
 3658                             	.LFE214:
 3660                             		.section	.text.INT_Excep_PERIA_INTA243,"ax",@progbits
 3661                             		.global	_INT_Excep_PERIA_INTA243
 3663                             	_INT_Excep_PERIA_INTA243:
 3664                             	.LFB215:
 710:../generate/inthandler.c **** 
 711:../generate/inthandler.c **** //;0x03CC PERIA INTA243
 712:../generate/inthandler.c **** void INT_Excep_PERIA_INTA243(void){ }
 3665                             		.loc 1 712 35
 3666                             		; Note: Interrupt Handler
 3667 0000 7E AA                   		push.l	r10
 3668                             	.LCFI430:
 3669 0002 EF 0A                   		mov.L	r0, r10
 3670                             	.LCFI431:
 3671                             		.loc 1 712 1
 3672 0004 03                      		nop
 3673 0005 7E BA                   		pop	r10
 3674 0007 7F 95                   		rte
 3675                             	.LFE215:
 3677                             		.section	.text.INT_Excep_PERIA_INTA244,"ax",@progbits
 3678                             		.global	_INT_Excep_PERIA_INTA244
 3680                             	_INT_Excep_PERIA_INTA244:
 3681                             	.LFB216:
 713:../generate/inthandler.c **** 
 714:../generate/inthandler.c **** //;0x03D0 PERIA INTA244
 715:../generate/inthandler.c **** void INT_Excep_PERIA_INTA244(void){ }
 3682                             		.loc 1 715 35
 3683                             		; Note: Interrupt Handler
 3684 0000 7E AA                   		push.l	r10
 3685                             	.LCFI432:
 3686 0002 EF 0A                   		mov.L	r0, r10
 3687                             	.LCFI433:
 3688                             		.loc 1 715 1
 3689 0004 03                      		nop
 3690 0005 7E BA                   		pop	r10
 3691 0007 7F 95                   		rte
 3692                             	.LFE216:
 3694                             		.section	.text.INT_Excep_PERIA_INTA245,"ax",@progbits
 3695                             		.global	_INT_Excep_PERIA_INTA245
 3697                             	_INT_Excep_PERIA_INTA245:
 3698                             	.LFB217:
 716:../generate/inthandler.c **** 
 717:../generate/inthandler.c **** //;0x03D4 PERIA INTA245
 718:../generate/inthandler.c **** void INT_Excep_PERIA_INTA245(void){ }
 3699                             		.loc 1 718 35
 3700                             		; Note: Interrupt Handler
 3701 0000 7E AA                   		push.l	r10
 3702                             	.LCFI434:
 3703 0002 EF 0A                   		mov.L	r0, r10
 3704                             	.LCFI435:
 3705                             		.loc 1 718 1
 3706 0004 03                      		nop
 3707 0005 7E BA                   		pop	r10
 3708 0007 7F 95                   		rte
 3709                             	.LFE217:
 3711                             		.section	.text.INT_Excep_PERIA_INTA246,"ax",@progbits
 3712                             		.global	_INT_Excep_PERIA_INTA246
 3714                             	_INT_Excep_PERIA_INTA246:
 3715                             	.LFB218:
 719:../generate/inthandler.c **** 
 720:../generate/inthandler.c **** //;0x03D8 PERIA INTA246
 721:../generate/inthandler.c **** void INT_Excep_PERIA_INTA246(void){ }
 3716                             		.loc 1 721 35
 3717                             		; Note: Interrupt Handler
 3718 0000 7E AA                   		push.l	r10
 3719                             	.LCFI436:
 3720 0002 EF 0A                   		mov.L	r0, r10
 3721                             	.LCFI437:
 3722                             		.loc 1 721 1
 3723 0004 03                      		nop
 3724 0005 7E BA                   		pop	r10
 3725 0007 7F 95                   		rte
 3726                             	.LFE218:
 3728                             		.section	.text.INT_Excep_PERIA_INTA247,"ax",@progbits
 3729                             		.global	_INT_Excep_PERIA_INTA247
 3731                             	_INT_Excep_PERIA_INTA247:
 3732                             	.LFB219:
 722:../generate/inthandler.c **** 
 723:../generate/inthandler.c **** //;0x03DC PERIA INTA247
 724:../generate/inthandler.c **** void INT_Excep_PERIA_INTA247(void){ }
 3733                             		.loc 1 724 35
 3734                             		; Note: Interrupt Handler
 3735 0000 7E AA                   		push.l	r10
 3736                             	.LCFI438:
 3737 0002 EF 0A                   		mov.L	r0, r10
 3738                             	.LCFI439:
 3739                             		.loc 1 724 1
 3740 0004 03                      		nop
 3741 0005 7E BA                   		pop	r10
 3742 0007 7F 95                   		rte
 3743                             	.LFE219:
 3745                             		.section	.text.INT_Excep_PERIA_INTA248,"ax",@progbits
 3746                             		.global	_INT_Excep_PERIA_INTA248
 3748                             	_INT_Excep_PERIA_INTA248:
 3749                             	.LFB220:
 725:../generate/inthandler.c **** 
 726:../generate/inthandler.c **** //;0x03E0 PERIA INTA248
 727:../generate/inthandler.c **** void INT_Excep_PERIA_INTA248(void){ }
 3750                             		.loc 1 727 35
 3751                             		; Note: Interrupt Handler
 3752 0000 7E AA                   		push.l	r10
 3753                             	.LCFI440:
 3754 0002 EF 0A                   		mov.L	r0, r10
 3755                             	.LCFI441:
 3756                             		.loc 1 727 1
 3757 0004 03                      		nop
 3758 0005 7E BA                   		pop	r10
 3759 0007 7F 95                   		rte
 3760                             	.LFE220:
 3762                             		.section	.text.INT_Excep_PERIA_INTA249,"ax",@progbits
 3763                             		.global	_INT_Excep_PERIA_INTA249
 3765                             	_INT_Excep_PERIA_INTA249:
 3766                             	.LFB221:
 728:../generate/inthandler.c **** 
 729:../generate/inthandler.c **** //;0x03E4 PERIA INTA249
 730:../generate/inthandler.c **** void INT_Excep_PERIA_INTA249(void){ }
 3767                             		.loc 1 730 35
 3768                             		; Note: Interrupt Handler
 3769 0000 7E AA                   		push.l	r10
 3770                             	.LCFI442:
 3771 0002 EF 0A                   		mov.L	r0, r10
 3772                             	.LCFI443:
 3773                             		.loc 1 730 1
 3774 0004 03                      		nop
 3775 0005 7E BA                   		pop	r10
 3776 0007 7F 95                   		rte
 3777                             	.LFE221:
 3779                             		.section	.text.INT_Excep_PERIA_INTA250,"ax",@progbits
 3780                             		.global	_INT_Excep_PERIA_INTA250
 3782                             	_INT_Excep_PERIA_INTA250:
 3783                             	.LFB222:
 731:../generate/inthandler.c **** 
 732:../generate/inthandler.c **** //;0x03E8 PERIA INTA250
 733:../generate/inthandler.c **** void INT_Excep_PERIA_INTA250(void){ }
 3784                             		.loc 1 733 35
 3785                             		; Note: Interrupt Handler
 3786 0000 7E AA                   		push.l	r10
 3787                             	.LCFI444:
 3788 0002 EF 0A                   		mov.L	r0, r10
 3789                             	.LCFI445:
 3790                             		.loc 1 733 1
 3791 0004 03                      		nop
 3792 0005 7E BA                   		pop	r10
 3793 0007 7F 95                   		rte
 3794                             	.LFE222:
 3796                             		.section	.text.INT_Excep_PERIA_INTA251,"ax",@progbits
 3797                             		.global	_INT_Excep_PERIA_INTA251
 3799                             	_INT_Excep_PERIA_INTA251:
 3800                             	.LFB223:
 734:../generate/inthandler.c **** 
 735:../generate/inthandler.c **** //;0x03EC PERIA INTA251
 736:../generate/inthandler.c **** void INT_Excep_PERIA_INTA251(void){ }
 3801                             		.loc 1 736 35
 3802                             		; Note: Interrupt Handler
 3803 0000 7E AA                   		push.l	r10
 3804                             	.LCFI446:
 3805 0002 EF 0A                   		mov.L	r0, r10
 3806                             	.LCFI447:
 3807                             		.loc 1 736 1
 3808 0004 03                      		nop
 3809 0005 7E BA                   		pop	r10
 3810 0007 7F 95                   		rte
 3811                             	.LFE223:
 3813                             		.section	.text.INT_Excep_PERIA_INTA252,"ax",@progbits
 3814                             		.global	_INT_Excep_PERIA_INTA252
 3816                             	_INT_Excep_PERIA_INTA252:
 3817                             	.LFB224:
 737:../generate/inthandler.c **** 
 738:../generate/inthandler.c **** //;0x03F0 PERIA INTA252
 739:../generate/inthandler.c **** void INT_Excep_PERIA_INTA252(void){ }
 3818                             		.loc 1 739 35
 3819                             		; Note: Interrupt Handler
 3820 0000 7E AA                   		push.l	r10
 3821                             	.LCFI448:
 3822 0002 EF 0A                   		mov.L	r0, r10
 3823                             	.LCFI449:
 3824                             		.loc 1 739 1
 3825 0004 03                      		nop
 3826 0005 7E BA                   		pop	r10
 3827 0007 7F 95                   		rte
 3828                             	.LFE224:
 3830                             		.section	.text.INT_Excep_PERIA_INTA253,"ax",@progbits
 3831                             		.global	_INT_Excep_PERIA_INTA253
 3833                             	_INT_Excep_PERIA_INTA253:
 3834                             	.LFB225:
 740:../generate/inthandler.c **** 
 741:../generate/inthandler.c **** //;0x03F4 PERIA INTA253
 742:../generate/inthandler.c **** void INT_Excep_PERIA_INTA253(void){ }
 3835                             		.loc 1 742 35
 3836                             		; Note: Interrupt Handler
 3837 0000 7E AA                   		push.l	r10
 3838                             	.LCFI450:
 3839 0002 EF 0A                   		mov.L	r0, r10
 3840                             	.LCFI451:
 3841                             		.loc 1 742 1
 3842 0004 03                      		nop
 3843 0005 7E BA                   		pop	r10
 3844 0007 7F 95                   		rte
 3845                             	.LFE225:
 3847                             		.section	.text.INT_Excep_PERIA_INTA254,"ax",@progbits
 3848                             		.global	_INT_Excep_PERIA_INTA254
 3850                             	_INT_Excep_PERIA_INTA254:
 3851                             	.LFB226:
 743:../generate/inthandler.c **** 
 744:../generate/inthandler.c **** //;0x03F8 PERIA INTA254
 745:../generate/inthandler.c **** void INT_Excep_PERIA_INTA254(void){ }
 3852                             		.loc 1 745 35
 3853                             		; Note: Interrupt Handler
 3854 0000 7E AA                   		push.l	r10
 3855                             	.LCFI452:
 3856 0002 EF 0A                   		mov.L	r0, r10
 3857                             	.LCFI453:
 3858                             		.loc 1 745 1
 3859 0004 03                      		nop
 3860 0005 7E BA                   		pop	r10
 3861 0007 7F 95                   		rte
 3862                             	.LFE226:
 3864                             		.section	.text.INT_Excep_PERIA_INTA255,"ax",@progbits
 3865                             		.global	_INT_Excep_PERIA_INTA255
 3867                             	_INT_Excep_PERIA_INTA255:
 3868                             	.LFB227:
 746:../generate/inthandler.c **** 
 747:../generate/inthandler.c **** //;0x03FC PERIA INTA255
 748:../generate/inthandler.c **** void INT_Excep_PERIA_INTA255(void){ }
 3869                             		.loc 1 748 35
 3870                             		; Note: Interrupt Handler
 3871 0000 7E AA                   		push.l	r10
 3872                             	.LCFI454:
 3873 0002 EF 0A                   		mov.L	r0, r10
 3874                             	.LCFI455:
 3875                             		.loc 1 748 1
 3876 0004 03                      		nop
 3877 0005 7E BA                   		pop	r10
 3878 0007 7F 95                   		rte
 3879                             	.LFE227:
 8003                             	.Letext0:
